
My_MCU.elf:     file format elf32-avr

Sections:
Idx Name          Size      VMA       LMA       File off  Algn
  0 .text         0000284e  00000000  00000000  00000094  2**1
                  CONTENTS, ALLOC, LOAD, READONLY, CODE
  1 .data         00000004  00800060  0000284e  000028e2  2**0
                  CONTENTS, ALLOC, LOAD, DATA
  2 .bss          000000f1  00800064  00800064  000028e6  2**0
                  ALLOC
  3 .comment      00000030  00000000  00000000  000028e6  2**0
                  CONTENTS, READONLY
  4 .note.gnu.avr.deviceinfo 0000003c  00000000  00000000  00002918  2**2
                  CONTENTS, READONLY
  5 .debug_info   000004e6  00000000  00000000  00002954  2**0
                  CONTENTS, READONLY, DEBUGGING
  6 .debug_abbrev 000004a3  00000000  00000000  00002e3a  2**0
                  CONTENTS, READONLY, DEBUGGING
  7 .debug_line   00000116  00000000  00000000  000032dd  2**0
                  CONTENTS, READONLY, DEBUGGING
  8 .debug_str    00000196  00000000  00000000  000033f3  2**0
                  CONTENTS, READONLY, DEBUGGING

Disassembly of section .text:

00000000 <__vectors>:
       0:	0c 94 3a 00 	jmp	0x74	; 0x74 <__ctors_end>
       4:	0c 94 57 00 	jmp	0xae	; 0xae <__bad_interrupt>
       8:	0c 94 57 00 	jmp	0xae	; 0xae <__bad_interrupt>
       c:	0c 94 57 00 	jmp	0xae	; 0xae <__bad_interrupt>
      10:	0c 94 57 00 	jmp	0xae	; 0xae <__bad_interrupt>
      14:	0c 94 57 00 	jmp	0xae	; 0xae <__bad_interrupt>
      18:	0c 94 57 00 	jmp	0xae	; 0xae <__bad_interrupt>
      1c:	0c 94 57 00 	jmp	0xae	; 0xae <__bad_interrupt>
      20:	0c 94 57 00 	jmp	0xae	; 0xae <__bad_interrupt>
      24:	0c 94 0a 0e 	jmp	0x1c14	; 0x1c14 <__vector_9>
      28:	0c 94 57 00 	jmp	0xae	; 0xae <__bad_interrupt>
      2c:	0c 94 80 0f 	jmp	0x1f00	; 0x1f00 <__vector_11>
      30:	0c 94 57 00 	jmp	0xae	; 0xae <__bad_interrupt>
      34:	0c 94 11 13 	jmp	0x2622	; 0x2622 <__vector_13>
      38:	0c 94 57 00 	jmp	0xae	; 0xae <__bad_interrupt>
      3c:	0c 94 a8 13 	jmp	0x2750	; 0x2750 <__vector_15>
      40:	0c 94 75 04 	jmp	0x8ea	; 0x8ea <__vector_16>
      44:	0c 94 57 00 	jmp	0xae	; 0xae <__bad_interrupt>
      48:	0c 94 57 00 	jmp	0xae	; 0xae <__bad_interrupt>
      4c:	0c 94 57 00 	jmp	0xae	; 0xae <__bad_interrupt>
      50:	0c 94 57 00 	jmp	0xae	; 0xae <__bad_interrupt>
      54:	8a 09       	sbc	r24, r10
      56:	96 09       	sbc	r25, r6
      58:	a4 09       	sbc	r26, r4
      5a:	b0 09       	sbc	r27, r0
      5c:	bc 09       	sbc	r27, r12
      5e:	c0 09       	sbc	r28, r0
      60:	cc 09       	sbc	r28, r12

00000062 <__trampolines_end>:
      62:	3f 06       	cpc	r3, r31
      64:	5b 4f       	sbci	r21, 0xFB	; 251
      66:	66 6d       	ori	r22, 0xD6	; 214
      68:	7d 07       	cpc	r23, r29
      6a:	7f 6f       	ori	r23, 0xFF	; 255
      6c:	76 39       	cpi	r23, 0x96	; 150
      6e:	31 6e       	ori	r19, 0xE1	; 225
      70:	37 77       	andi	r19, 0x77	; 119
      72:	73 79       	andi	r23, 0x93	; 147

00000074 <__ctors_end>:
      74:	11 24       	eor	r1, r1
      76:	1f be       	out	0x3f, r1	; 63
      78:	cf e5       	ldi	r28, 0x5F	; 95
      7a:	d8 e0       	ldi	r29, 0x08	; 8
      7c:	de bf       	out	0x3e, r29	; 62
      7e:	cd bf       	out	0x3d, r28	; 61

00000080 <__do_copy_data>:
      80:	10 e0       	ldi	r17, 0x00	; 0
      82:	a0 e6       	ldi	r26, 0x60	; 96
      84:	b0 e0       	ldi	r27, 0x00	; 0
      86:	ee e4       	ldi	r30, 0x4E	; 78
      88:	f8 e2       	ldi	r31, 0x28	; 40
      8a:	02 c0       	rjmp	.+4      	; 0x90 <__do_copy_data+0x10>
      8c:	05 90       	lpm	r0, Z+
      8e:	0d 92       	st	X+, r0
      90:	a4 36       	cpi	r26, 0x64	; 100
      92:	b1 07       	cpc	r27, r17
      94:	d9 f7       	brne	.-10     	; 0x8c <__do_copy_data+0xc>

00000096 <__do_clear_bss>:
      96:	21 e0       	ldi	r18, 0x01	; 1
      98:	a4 e6       	ldi	r26, 0x64	; 100
      9a:	b0 e0       	ldi	r27, 0x00	; 0
      9c:	01 c0       	rjmp	.+2      	; 0xa0 <.do_clear_bss_start>

0000009e <.do_clear_bss_loop>:
      9e:	1d 92       	st	X+, r1

000000a0 <.do_clear_bss_start>:
      a0:	a5 35       	cpi	r26, 0x55	; 85
      a2:	b2 07       	cpc	r27, r18
      a4:	e1 f7       	brne	.-8      	; 0x9e <.do_clear_bss_loop>
      a6:	0e 94 88 00 	call	0x110	; 0x110 <main>
      aa:	0c 94 25 14 	jmp	0x284a	; 0x284a <_exit>

000000ae <__bad_interrupt>:
      ae:	0c 94 00 00 	jmp	0	; 0x0 <__vectors>

000000b2 <led_ALL_off>:
      b2:	f8 94       	cli
      b4:	e2 e3       	ldi	r30, 0x32	; 50
      b6:	f1 e0       	ldi	r31, 0x01	; 1
      b8:	80 81       	ld	r24, Z
      ba:	8d 7f       	andi	r24, 0xFD	; 253
      bc:	80 83       	st	Z, r24
      be:	e5 e2       	ldi	r30, 0x25	; 37
      c0:	f1 e0       	ldi	r31, 0x01	; 1
      c2:	85 81       	ldd	r24, Z+5	; 0x05
      c4:	8d 7f       	andi	r24, 0xFD	; 253
      c6:	85 83       	std	Z+5, r24	; 0x05
      c8:	78 94       	sei
      ca:	08 95       	ret

000000cc <test_indicators>:
      cc:	cf 93       	push	r28
      ce:	c8 2f       	mov	r28, r24
      d0:	88 23       	and	r24, r24
      d2:	11 f0       	breq	.+4      	; 0xd8 <test_indicators+0xc>
      d4:	61 e0       	ldi	r22, 0x01	; 1
      d6:	01 c0       	rjmp	.+2      	; 0xda <test_indicators+0xe>
      d8:	62 e0       	ldi	r22, 0x02	; 2
      da:	86 e0       	ldi	r24, 0x06	; 6
      dc:	0e 94 7f 09 	call	0x12fe	; 0x12fe <set_discret_output>
      e0:	c0 93 2b 01 	sts	0x012B, r28	; 0x80012b <IndicatorsFacePanelStr>
      e4:	c0 93 2c 01 	sts	0x012C, r28	; 0x80012c <IndicatorsFacePanelStr+0x1>
      e8:	c0 93 2d 01 	sts	0x012D, r28	; 0x80012d <IndicatorsFacePanelStr+0x2>
      ec:	c0 93 2e 01 	sts	0x012E, r28	; 0x80012e <IndicatorsFacePanelStr+0x3>
      f0:	c0 93 2f 01 	sts	0x012F, r28	; 0x80012f <IndicatorsFacePanelStr+0x4>
      f4:	c0 93 30 01 	sts	0x0130, r28	; 0x800130 <IndicatorsFacePanelStr+0x5>
      f8:	c0 93 31 01 	sts	0x0131, r28	; 0x800131 <IndicatorsFacePanelStr+0x6>
      fc:	c0 93 32 01 	sts	0x0132, r28	; 0x800132 <IndicatorsFacePanelStr+0x7>
     100:	c0 93 33 01 	sts	0x0133, r28	; 0x800133 <IndicatorsFacePanelStr+0x8>
     104:	c0 93 34 01 	sts	0x0134, r28	; 0x800134 <IndicatorsFacePanelStr+0x9>
     108:	c0 93 35 01 	sts	0x0135, r28	; 0x800135 <IndicatorsFacePanelStr+0xa>
     10c:	cf 91       	pop	r28
     10e:	08 95       	ret

00000110 <main>:
     110:	0e 94 aa 04 	call	0x954	; 0x954 <charge_init>
     114:	2f ef       	ldi	r18, 0xFF	; 255
     116:	83 ed       	ldi	r24, 0xD3	; 211
     118:	90 e3       	ldi	r25, 0x30	; 48
     11a:	21 50       	subi	r18, 0x01	; 1
     11c:	80 40       	sbci	r24, 0x00	; 0
     11e:	90 40       	sbci	r25, 0x00	; 0
     120:	e1 f7       	brne	.-8      	; 0x11a <main+0xa>
     122:	00 c0       	rjmp	.+0      	; 0x124 <main+0x14>
     124:	00 00       	nop
     126:	0e 94 40 09 	call	0x1280	; 0x1280 <relay_em_init>
     12a:	0e 94 cb 0d 	call	0x1b96	; 0x1b96 <timers_init>
     12e:	0e 94 5d 04 	call	0x8ba	; 0x8ba <adc_init>
     132:	0e 94 b0 0a 	call	0x1560	; 0x1560 <pt6964_init>
     136:	0e 94 8b 10 	call	0x2116	; 0x2116 <usart_init>
     13a:	0e 94 37 0a 	call	0x146e	; 0x146e <hef4052_init>
     13e:	86 e0       	ldi	r24, 0x06	; 6
     140:	0e 94 d6 09 	call	0x13ac	; 0x13ac <select_audio_source>
     144:	61 e0       	ldi	r22, 0x01	; 1
     146:	80 e0       	ldi	r24, 0x00	; 0
     148:	0e 94 4e 09 	call	0x129c	; 0x129c <set_relay>
     14c:	62 e0       	ldi	r22, 0x02	; 2
     14e:	80 e0       	ldi	r24, 0x00	; 0
     150:	0e 94 4e 09 	call	0x129c	; 0x129c <set_relay>
     154:	9f e0       	ldi	r25, 0x0F	; 15
     156:	88 e1       	ldi	r24, 0x18	; 24
     158:	0f b6       	in	r0, 0x3f	; 63
     15a:	f8 94       	cli
     15c:	a8 95       	wdr
     15e:	81 bd       	out	0x21, r24	; 33
     160:	0f be       	out	0x3f, r0	; 63
     162:	91 bd       	out	0x21, r25	; 33
     164:	78 94       	sei
     166:	2f ef       	ldi	r18, 0xFF	; 255
     168:	83 ed       	ldi	r24, 0xD3	; 211
     16a:	90 e3       	ldi	r25, 0x30	; 48
     16c:	21 50       	subi	r18, 0x01	; 1
     16e:	80 40       	sbci	r24, 0x00	; 0
     170:	90 40       	sbci	r25, 0x00	; 0
     172:	e1 f7       	brne	.-8      	; 0x16c <main+0x5c>
     174:	00 c0       	rjmp	.+0      	; 0x176 <main+0x66>
     176:	00 00       	nop
     178:	0e 94 c6 06 	call	0xd8c	; 0xd8c <calibration_adc_for_line_checker>
     17c:	61 e0       	ldi	r22, 0x01	; 1
     17e:	80 e0       	ldi	r24, 0x00	; 0
     180:	0e 94 4e 09 	call	0x129c	; 0x129c <set_relay>
     184:	c8 e0       	ldi	r28, 0x08	; 8
     186:	d0 e0       	ldi	r29, 0x00	; 0
     188:	11 e0       	ldi	r17, 0x01	; 1
     18a:	81 2f       	mov	r24, r17
     18c:	0c 2e       	mov	r0, r28
     18e:	01 c0       	rjmp	.+2      	; 0x192 <main+0x82>
     190:	88 0f       	add	r24, r24
     192:	0a 94       	dec	r0
     194:	ea f7       	brpl	.-6      	; 0x190 <main+0x80>
     196:	0e 94 dd 0b 	call	0x17ba	; 0x17ba <set_speaker_led_green>
     19a:	8c e3       	ldi	r24, 0x3C	; 60
     19c:	90 e0       	ldi	r25, 0x00	; 0
     19e:	0e 94 eb 0d 	call	0x1bd6	; 0x1bd6 <ms_delay>
     1a2:	21 97       	sbiw	r28, 0x01	; 1
     1a4:	90 f7       	brcc	.-28     	; 0x18a <main+0x7a>
     1a6:	c0 e0       	ldi	r28, 0x00	; 0
     1a8:	d0 e0       	ldi	r29, 0x00	; 0
     1aa:	11 e0       	ldi	r17, 0x01	; 1
     1ac:	81 2f       	mov	r24, r17
     1ae:	0c 2e       	mov	r0, r28
     1b0:	01 c0       	rjmp	.+2      	; 0x1b4 <main+0xa4>
     1b2:	88 0f       	add	r24, r24
     1b4:	0a 94       	dec	r0
     1b6:	ea f7       	brpl	.-6      	; 0x1b2 <main+0xa2>
     1b8:	0e 94 dd 0b 	call	0x17ba	; 0x17ba <set_speaker_led_green>
     1bc:	8c e3       	ldi	r24, 0x3C	; 60
     1be:	90 e0       	ldi	r25, 0x00	; 0
     1c0:	0e 94 eb 0d 	call	0x1bd6	; 0x1bd6 <ms_delay>
     1c4:	21 96       	adiw	r28, 0x01	; 1
     1c6:	c8 30       	cpi	r28, 0x08	; 8
     1c8:	d1 05       	cpc	r29, r1
     1ca:	81 f7       	brne	.-32     	; 0x1ac <main+0x9c>
     1cc:	80 e0       	ldi	r24, 0x00	; 0
     1ce:	0e 94 dd 0b 	call	0x17ba	; 0x17ba <set_speaker_led_green>
     1d2:	80 ef       	ldi	r24, 0xF0	; 240
     1d4:	90 e0       	ldi	r25, 0x00	; 0
     1d6:	0e 94 bf 08 	call	0x117e	; 0x117e <eep_read_configuration>
     1da:	80 91 f0 00 	lds	r24, 0x00F0	; 0x8000f0 <ConfigurationStr>
     1de:	81 34       	cpi	r24, 0x41	; 65
     1e0:	c0 f0       	brcs	.+48     	; 0x212 <main+0x102>
     1e2:	81 e0       	ldi	r24, 0x01	; 1
     1e4:	80 93 f0 00 	sts	0x00F0, r24	; 0x8000f0 <ConfigurationStr>
     1e8:	80 93 f1 00 	sts	0x00F1, r24	; 0x8000f1 <ConfigurationStr+0x1>
     1ec:	10 92 f2 00 	sts	0x00F2, r1	; 0x8000f2 <ConfigurationStr+0x2>
     1f0:	80 93 f3 00 	sts	0x00F3, r24	; 0x8000f3 <ConfigurationStr+0x3>
     1f4:	8c e0       	ldi	r24, 0x0C	; 12
     1f6:	80 93 f4 00 	sts	0x00F4, r24	; 0x8000f4 <ConfigurationStr+0x4>
     1fa:	10 92 f5 00 	sts	0x00F5, r1	; 0x8000f5 <ConfigurationStr+0x5>
     1fe:	82 e0       	ldi	r24, 0x02	; 2
     200:	80 93 f6 00 	sts	0x00F6, r24	; 0x8000f6 <ConfigurationStr+0x6>
     204:	80 ef       	ldi	r24, 0xF0	; 240
     206:	90 e0       	ldi	r25, 0x00	; 0
     208:	0e 94 a1 08 	call	0x1142	; 0x1142 <eep_write_configuration>
     20c:	8f ef       	ldi	r24, 0xFF	; 255
     20e:	0e 94 1d 09 	call	0x123a	; 0x123a <eep_write_set_lines_to_control>
     212:	87 99       	sbic	0x10, 7	; 16
     214:	0a c0       	rjmp	.+20     	; 0x22a <main+0x11a>
     216:	0e 94 27 0b 	call	0x164e	; 0x164e <power_led_green>
     21a:	80 91 f0 00 	lds	r24, 0x00F0	; 0x8000f0 <ConfigurationStr>
     21e:	0e 94 e0 0a 	call	0x15c0	; 0x15c0 <bin_to_dec>
     222:	90 e0       	ldi	r25, 0x00	; 0
     224:	0e 94 ec 0a 	call	0x15d8	; 0x15d8 <display_set>
     228:	02 c0       	rjmp	.+4      	; 0x22e <main+0x11e>
     22a:	0e 94 3f 0b 	call	0x167e	; 0x167e <power_led_blink_green>
     22e:	80 91 f6 00 	lds	r24, 0x00F6	; 0x8000f6 <ConfigurationStr+0x6>
     232:	0e 94 28 07 	call	0xe50	; 0xe50 <measure_resistence_all_line_after_power_on>
     236:	0e 94 2b 09 	call	0x1256	; 0x1256 <eep_read_set_lines_to_control>
     23a:	0e 94 11 07 	call	0xe22	; 0xe22 <set_lines_to_control>
     23e:	80 ef       	ldi	r24, 0xF0	; 240
     240:	90 e0       	ldi	r25, 0x00	; 0
     242:	0e 94 9a 10 	call	0x2134	; 0x2134 <usart_config_for_protocol>
     246:	80 91 8b 00 	lds	r24, 0x008B	; 0x80008b <Timer0FlagReg>
     24a:	81 ff       	sbrs	r24, 1
     24c:	4a c1       	rjmp	.+660    	; 0x4e2 <__EEPROM_REGION_LENGTH__+0xe2>
     24e:	8a b1       	in	r24, 0x0a	; 10
     250:	8f 76       	andi	r24, 0x6F	; 111
     252:	8a b9       	out	0x0a, r24	; 10
     254:	80 91 8a 00 	lds	r24, 0x008A	; 0x80008a <Timer0FlagReg2>
     258:	8c 7f       	andi	r24, 0xFC	; 252
     25a:	80 93 8a 00 	sts	0x008A, r24	; 0x80008a <Timer0FlagReg2>
     25e:	c3 e0       	ldi	r28, 0x03	; 3
     260:	61 e0       	ldi	r22, 0x01	; 1
     262:	86 e0       	ldi	r24, 0x06	; 6
     264:	0e 94 7f 09 	call	0x12fe	; 0x12fe <set_discret_output>
     268:	84 e6       	ldi	r24, 0x64	; 100
     26a:	90 e0       	ldi	r25, 0x00	; 0
     26c:	0e 94 eb 0d 	call	0x1bd6	; 0x1bd6 <ms_delay>
     270:	62 e0       	ldi	r22, 0x02	; 2
     272:	86 e0       	ldi	r24, 0x06	; 6
     274:	0e 94 7f 09 	call	0x12fe	; 0x12fe <set_discret_output>
     278:	84 e6       	ldi	r24, 0x64	; 100
     27a:	90 e0       	ldi	r25, 0x00	; 0
     27c:	0e 94 eb 0d 	call	0x1bd6	; 0x1bd6 <ms_delay>
     280:	c1 50       	subi	r28, 0x01	; 1
     282:	71 f7       	brne	.-36     	; 0x260 <main+0x150>
     284:	dd 9a       	sbi	0x1b, 5	; 27
     286:	0e 94 bd 04 	call	0x97a	; 0x97a <clear_charge_indication>
     28a:	62 e0       	ldi	r22, 0x02	; 2
     28c:	86 e0       	ldi	r24, 0x06	; 6
     28e:	0e 94 7f 09 	call	0x12fe	; 0x12fe <set_discret_output>
     292:	62 e0       	ldi	r22, 0x02	; 2
     294:	83 e0       	ldi	r24, 0x03	; 3
     296:	0e 94 7f 09 	call	0x12fe	; 0x12fe <set_discret_output>
     29a:	62 e0       	ldi	r22, 0x02	; 2
     29c:	84 e0       	ldi	r24, 0x04	; 4
     29e:	0e 94 7f 09 	call	0x12fe	; 0x12fe <set_discret_output>
     2a2:	80 91 33 01 	lds	r24, 0x0133	; 0x800133 <IndicatorsFacePanelStr+0x8>
     2a6:	8f 77       	andi	r24, 0x7F	; 127
     2a8:	80 93 33 01 	sts	0x0133, r24	; 0x800133 <IndicatorsFacePanelStr+0x8>
     2ac:	61 e0       	ldi	r22, 0x01	; 1
     2ae:	80 e0       	ldi	r24, 0x00	; 0
     2b0:	0e 94 4e 09 	call	0x129c	; 0x129c <set_relay>
     2b4:	62 e0       	ldi	r22, 0x02	; 2
     2b6:	80 e0       	ldi	r24, 0x00	; 0
     2b8:	0e 94 4e 09 	call	0x129c	; 0x129c <set_relay>
     2bc:	86 e0       	ldi	r24, 0x06	; 6
     2be:	0e 94 d6 09 	call	0x13ac	; 0x13ac <select_audio_source>
     2c2:	8e e4       	ldi	r24, 0x4E	; 78
     2c4:	0e 94 05 0a 	call	0x140a	; 0x140a <power_amplifier_control>
     2c8:	80 e0       	ldi	r24, 0x00	; 0
     2ca:	0e 94 dd 0b 	call	0x17ba	; 0x17ba <set_speaker_led_green>
     2ce:	80 e0       	ldi	r24, 0x00	; 0
     2d0:	0e 94 47 0b 	call	0x168e	; 0x168e <set_line_checker_led_green>
     2d4:	80 e0       	ldi	r24, 0x00	; 0
     2d6:	0e 94 92 0b 	call	0x1724	; 0x1724 <set_line_checker_led_red>
     2da:	0e 94 1e 0b 	call	0x163c	; 0x163c <display_off>
     2de:	0e 94 59 00 	call	0xb2	; 0xb2 <led_ALL_off>
     2e2:	80 91 8b 00 	lds	r24, 0x008B	; 0x80008b <Timer0FlagReg>
     2e6:	81 ff       	sbrs	r24, 1
     2e8:	ca c0       	rjmp	.+404    	; 0x47e <__EEPROM_REGION_LENGTH__+0x7e>
     2ea:	80 91 89 00 	lds	r24, 0x0089	; 0x800089 <Timer1BlinkReg>
     2ee:	0e 94 28 0c 	call	0x1850	; 0x1850 <set_speaker_led_red>
     2f2:	80 e0       	ldi	r24, 0x00	; 0
     2f4:	0e 94 40 0d 	call	0x1a80	; 0x1a80 <config_parameter_selection>
     2f8:	88 30       	cpi	r24, 0x08	; 8
     2fa:	09 f4       	brne	.+2      	; 0x2fe <main+0x1ee>
     2fc:	5c c0       	rjmp	.+184    	; 0x3b6 <main+0x2a6>
     2fe:	b8 f4       	brcc	.+46     	; 0x32e <main+0x21e>
     300:	82 30       	cpi	r24, 0x02	; 2
     302:	c1 f1       	breq	.+112    	; 0x374 <main+0x264>
     304:	84 30       	cpi	r24, 0x04	; 4
     306:	09 f4       	brne	.+2      	; 0x30a <main+0x1fa>
     308:	43 c0       	rjmp	.+134    	; 0x390 <main+0x280>
     30a:	81 30       	cpi	r24, 0x01	; 1
     30c:	09 f0       	breq	.+2      	; 0x310 <main+0x200>
     30e:	98 c0       	rjmp	.+304    	; 0x440 <__EEPROM_REGION_LENGTH__+0x40>
     310:	81 e0       	ldi	r24, 0x01	; 1
     312:	0e 94 47 0b 	call	0x168e	; 0x168e <set_line_checker_led_green>
     316:	80 91 f0 00 	lds	r24, 0x00F0	; 0x8000f0 <ConfigurationStr>
     31a:	0e 94 e0 0a 	call	0x15c0	; 0x15c0 <bin_to_dec>
     31e:	90 e0       	ldi	r25, 0x00	; 0
     320:	0e 94 ec 0a 	call	0x15d8	; 0x15d8 <display_set>
     324:	40 e4       	ldi	r20, 0x40	; 64
     326:	61 e0       	ldi	r22, 0x01	; 1
     328:	80 ef       	ldi	r24, 0xF0	; 240
     32a:	90 e0       	ldi	r25, 0x00	; 0
     32c:	87 c0       	rjmp	.+270    	; 0x43c <__EEPROM_REGION_LENGTH__+0x3c>
     32e:	80 32       	cpi	r24, 0x20	; 32
     330:	09 f4       	brne	.+2      	; 0x334 <main+0x224>
     332:	54 c0       	rjmp	.+168    	; 0x3dc <main+0x2cc>
     334:	90 f4       	brcc	.+36     	; 0x35a <main+0x24a>
     336:	80 31       	cpi	r24, 0x10	; 16
     338:	09 f0       	breq	.+2      	; 0x33c <main+0x22c>
     33a:	82 c0       	rjmp	.+260    	; 0x440 <__EEPROM_REGION_LENGTH__+0x40>
     33c:	80 e1       	ldi	r24, 0x10	; 16
     33e:	0e 94 47 0b 	call	0x168e	; 0x168e <set_line_checker_led_green>
     342:	80 91 f4 00 	lds	r24, 0x00F4	; 0x8000f4 <ConfigurationStr+0x4>
     346:	0e 94 e0 0a 	call	0x15c0	; 0x15c0 <bin_to_dec>
     34a:	90 e0       	ldi	r25, 0x00	; 0
     34c:	0e 94 ec 0a 	call	0x15d8	; 0x15d8 <display_set>
     350:	48 e1       	ldi	r20, 0x18	; 24
     352:	60 e0       	ldi	r22, 0x00	; 0
     354:	84 ef       	ldi	r24, 0xF4	; 244
     356:	90 e0       	ldi	r25, 0x00	; 0
     358:	71 c0       	rjmp	.+226    	; 0x43c <__EEPROM_REGION_LENGTH__+0x3c>
     35a:	80 34       	cpi	r24, 0x40	; 64
     35c:	09 f4       	brne	.+2      	; 0x360 <main+0x250>
     35e:	51 c0       	rjmp	.+162    	; 0x402 <__EEPROM_REGION_LENGTH__+0x2>
     360:	8f 3f       	cpi	r24, 0xFF	; 255
     362:	09 f0       	breq	.+2      	; 0x366 <main+0x256>
     364:	6d c0       	rjmp	.+218    	; 0x440 <__EEPROM_REGION_LENGTH__+0x40>
     366:	8d e3       	ldi	r24, 0x3D	; 61
     368:	0e 94 e0 0a 	call	0x15c0	; 0x15c0 <bin_to_dec>
     36c:	90 e0       	ldi	r25, 0x00	; 0
     36e:	0e 94 ec 0a 	call	0x15d8	; 0x15d8 <display_set>
     372:	66 c0       	rjmp	.+204    	; 0x440 <__EEPROM_REGION_LENGTH__+0x40>
     374:	82 e0       	ldi	r24, 0x02	; 2
     376:	0e 94 47 0b 	call	0x168e	; 0x168e <set_line_checker_led_green>
     37a:	80 91 f1 00 	lds	r24, 0x00F1	; 0x8000f1 <ConfigurationStr+0x1>
     37e:	80 6c       	ori	r24, 0xC0	; 192
     380:	90 e0       	ldi	r25, 0x00	; 0
     382:	0e 94 ec 0a 	call	0x15d8	; 0x15d8 <display_set>
     386:	48 e0       	ldi	r20, 0x08	; 8
     388:	61 e0       	ldi	r22, 0x01	; 1
     38a:	81 ef       	ldi	r24, 0xF1	; 241
     38c:	90 e0       	ldi	r25, 0x00	; 0
     38e:	56 c0       	rjmp	.+172    	; 0x43c <__EEPROM_REGION_LENGTH__+0x3c>
     390:	84 e0       	ldi	r24, 0x04	; 4
     392:	0e 94 47 0b 	call	0x168e	; 0x168e <set_line_checker_led_green>
     396:	80 91 f2 00 	lds	r24, 0x00F2	; 0x8000f2 <ConfigurationStr+0x2>
     39a:	88 23       	and	r24, r24
     39c:	19 f0       	breq	.+6      	; 0x3a4 <main+0x294>
     39e:	8f e3       	ldi	r24, 0x3F	; 63
     3a0:	90 e0       	ldi	r25, 0x00	; 0
     3a2:	02 c0       	rjmp	.+4      	; 0x3a8 <main+0x298>
     3a4:	8b e0       	ldi	r24, 0x0B	; 11
     3a6:	90 e0       	ldi	r25, 0x00	; 0
     3a8:	0e 94 ec 0a 	call	0x15d8	; 0x15d8 <display_set>
     3ac:	41 e0       	ldi	r20, 0x01	; 1
     3ae:	60 e0       	ldi	r22, 0x00	; 0
     3b0:	82 ef       	ldi	r24, 0xF2	; 242
     3b2:	90 e0       	ldi	r25, 0x00	; 0
     3b4:	43 c0       	rjmp	.+134    	; 0x43c <__EEPROM_REGION_LENGTH__+0x3c>
     3b6:	88 e0       	ldi	r24, 0x08	; 8
     3b8:	0e 94 47 0b 	call	0x168e	; 0x168e <set_line_checker_led_green>
     3bc:	80 91 f3 00 	lds	r24, 0x00F3	; 0x8000f3 <ConfigurationStr+0x3>
     3c0:	88 23       	and	r24, r24
     3c2:	19 f0       	breq	.+6      	; 0x3ca <main+0x2ba>
     3c4:	8f e3       	ldi	r24, 0x3F	; 63
     3c6:	90 e0       	ldi	r25, 0x00	; 0
     3c8:	02 c0       	rjmp	.+4      	; 0x3ce <main+0x2be>
     3ca:	8b e0       	ldi	r24, 0x0B	; 11
     3cc:	90 e0       	ldi	r25, 0x00	; 0
     3ce:	0e 94 ec 0a 	call	0x15d8	; 0x15d8 <display_set>
     3d2:	41 e0       	ldi	r20, 0x01	; 1
     3d4:	60 e0       	ldi	r22, 0x00	; 0
     3d6:	83 ef       	ldi	r24, 0xF3	; 243
     3d8:	90 e0       	ldi	r25, 0x00	; 0
     3da:	30 c0       	rjmp	.+96     	; 0x43c <__EEPROM_REGION_LENGTH__+0x3c>
     3dc:	80 e2       	ldi	r24, 0x20	; 32
     3de:	0e 94 47 0b 	call	0x168e	; 0x168e <set_line_checker_led_green>
     3e2:	80 91 f5 00 	lds	r24, 0x00F5	; 0x8000f5 <ConfigurationStr+0x5>
     3e6:	88 23       	and	r24, r24
     3e8:	19 f0       	breq	.+6      	; 0x3f0 <main+0x2e0>
     3ea:	8f e3       	ldi	r24, 0x3F	; 63
     3ec:	90 e0       	ldi	r25, 0x00	; 0
     3ee:	02 c0       	rjmp	.+4      	; 0x3f4 <main+0x2e4>
     3f0:	8b e0       	ldi	r24, 0x0B	; 11
     3f2:	90 e0       	ldi	r25, 0x00	; 0
     3f4:	0e 94 ec 0a 	call	0x15d8	; 0x15d8 <display_set>
     3f8:	41 e0       	ldi	r20, 0x01	; 1
     3fa:	60 e0       	ldi	r22, 0x00	; 0
     3fc:	85 ef       	ldi	r24, 0xF5	; 245
     3fe:	90 e0       	ldi	r25, 0x00	; 0
     400:	1d c0       	rjmp	.+58     	; 0x43c <__EEPROM_REGION_LENGTH__+0x3c>
     402:	80 e4       	ldi	r24, 0x40	; 64
     404:	0e 94 47 0b 	call	0x168e	; 0x168e <set_line_checker_led_green>
     408:	80 91 f6 00 	lds	r24, 0x00F6	; 0x8000f6 <ConfigurationStr+0x6>
     40c:	81 30       	cpi	r24, 0x01	; 1
     40e:	11 f4       	brne	.+4      	; 0x414 <__EEPROM_REGION_LENGTH__+0x14>
     410:	8a e0       	ldi	r24, 0x0A	; 10
     412:	0b c0       	rjmp	.+22     	; 0x42a <__EEPROM_REGION_LENGTH__+0x2a>
     414:	82 30       	cpi	r24, 0x02	; 2
     416:	11 f4       	brne	.+4      	; 0x41c <__EEPROM_REGION_LENGTH__+0x1c>
     418:	89 e1       	ldi	r24, 0x19	; 25
     41a:	07 c0       	rjmp	.+14     	; 0x42a <__EEPROM_REGION_LENGTH__+0x2a>
     41c:	83 30       	cpi	r24, 0x03	; 3
     41e:	11 f4       	brne	.+4      	; 0x424 <__EEPROM_REGION_LENGTH__+0x24>
     420:	88 e2       	ldi	r24, 0x28	; 40
     422:	03 c0       	rjmp	.+6      	; 0x42a <__EEPROM_REGION_LENGTH__+0x2a>
     424:	84 30       	cpi	r24, 0x04	; 4
     426:	31 f4       	brne	.+12     	; 0x434 <__EEPROM_REGION_LENGTH__+0x34>
     428:	81 e4       	ldi	r24, 0x41	; 65
     42a:	0e 94 e0 0a 	call	0x15c0	; 0x15c0 <bin_to_dec>
     42e:	90 e0       	ldi	r25, 0x00	; 0
     430:	0e 94 ec 0a 	call	0x15d8	; 0x15d8 <display_set>
     434:	44 e0       	ldi	r20, 0x04	; 4
     436:	61 e0       	ldi	r22, 0x01	; 1
     438:	86 ef       	ldi	r24, 0xF6	; 246
     43a:	90 e0       	ldi	r25, 0x00	; 0
     43c:	0e 94 62 0d 	call	0x1ac4	; 0x1ac4 <modification_config_parameter>
     440:	80 91 8a 00 	lds	r24, 0x008A	; 0x80008a <Timer0FlagReg2>
     444:	83 ff       	sbrs	r24, 3
     446:	4d cf       	rjmp	.-358    	; 0x2e2 <main+0x1d2>
     448:	80 91 89 00 	lds	r24, 0x0089	; 0x800089 <Timer1BlinkReg>
     44c:	0e 94 66 00 	call	0xcc	; 0xcc <test_indicators>
     450:	47 e0       	ldi	r20, 0x07	; 7
     452:	60 e0       	ldi	r22, 0x00	; 0
     454:	81 e6       	ldi	r24, 0x61	; 97
     456:	90 e0       	ldi	r25, 0x00	; 0
     458:	0e 94 62 0d 	call	0x1ac4	; 0x1ac4 <modification_config_parameter>
     45c:	80 91 61 00 	lds	r24, 0x0061	; 0x800061 <DisplayBright>
     460:	80 93 60 00 	sts	0x0060, r24	; 0x800060 <TempDisplayBright>
     464:	80 91 8a 00 	lds	r24, 0x008A	; 0x80008a <Timer0FlagReg2>
     468:	83 fd       	sbrc	r24, 3
     46a:	ee cf       	rjmp	.-36     	; 0x448 <__EEPROM_REGION_LENGTH__+0x48>
     46c:	80 e0       	ldi	r24, 0x00	; 0
     46e:	0e 94 66 00 	call	0xcc	; 0xcc <test_indicators>
     472:	86 e0       	ldi	r24, 0x06	; 6
     474:	0e 94 f9 0c 	call	0x19f2	; 0x19f2 <get_button>
     478:	81 fd       	sbrc	r24, 1
     47a:	fb cf       	rjmp	.-10     	; 0x472 <__EEPROM_REGION_LENGTH__+0x72>
     47c:	32 cf       	rjmp	.-412    	; 0x2e2 <main+0x1d2>
     47e:	80 91 f0 00 	lds	r24, 0x00F0	; 0x8000f0 <ConfigurationStr>
     482:	0e 94 e0 0a 	call	0x15c0	; 0x15c0 <bin_to_dec>
     486:	90 e0       	ldi	r25, 0x00	; 0
     488:	0e 94 ec 0a 	call	0x15d8	; 0x15d8 <display_set>
     48c:	85 ea       	ldi	r24, 0xA5	; 165
     48e:	0e 94 40 0d 	call	0x1a80	; 0x1a80 <config_parameter_selection>
     492:	80 ef       	ldi	r24, 0xF0	; 240
     494:	90 e0       	ldi	r25, 0x00	; 0
     496:	0e 94 a1 08 	call	0x1142	; 0x1142 <eep_write_configuration>
     49a:	80 e0       	ldi	r24, 0x00	; 0
     49c:	0e 94 28 0c 	call	0x1850	; 0x1850 <set_speaker_led_red>
     4a0:	80 e0       	ldi	r24, 0x00	; 0
     4a2:	0e 94 92 0b 	call	0x1724	; 0x1724 <set_line_checker_led_red>
     4a6:	80 e0       	ldi	r24, 0x00	; 0
     4a8:	0e 94 47 0b 	call	0x168e	; 0x168e <set_line_checker_led_green>
     4ac:	80 91 f6 00 	lds	r24, 0x00F6	; 0x8000f6 <ConfigurationStr+0x6>
     4b0:	0e 94 28 07 	call	0xe50	; 0xe50 <measure_resistence_all_line_after_power_on>
     4b4:	80 91 8b 00 	lds	r24, 0x008B	; 0x80008b <Timer0FlagReg>
     4b8:	8e 7f       	andi	r24, 0xFE	; 254
     4ba:	80 93 8b 00 	sts	0x008B, r24	; 0x80008b <Timer0FlagReg>
     4be:	0e 94 e1 0d 	call	0x1bc2	; 0x1bc2 <clear_hour_counter>
     4c2:	0e 94 e6 0d 	call	0x1bcc	; 0x1bcc <clear_charge_hour_counter>
     4c6:	80 91 8b 00 	lds	r24, 0x008B	; 0x80008b <Timer0FlagReg>
     4ca:	80 76       	andi	r24, 0x60	; 96
     4cc:	80 93 8b 00 	sts	0x008B, r24	; 0x80008b <Timer0FlagReg>
     4d0:	80 91 2a 01 	lds	r24, 0x012A	; 0x80012a <ButtonSostStr+0x5>
     4d4:	8d 7e       	andi	r24, 0xED	; 237
     4d6:	80 93 2a 01 	sts	0x012A, r24	; 0x80012a <ButtonSostStr+0x5>
     4da:	80 ef       	ldi	r24, 0xF0	; 240
     4dc:	90 e0       	ldi	r25, 0x00	; 0
     4de:	0e 94 9a 10 	call	0x2134	; 0x2134 <usart_config_for_protocol>
     4e2:	86 e0       	ldi	r24, 0x06	; 6
     4e4:	0e 94 0a 0d 	call	0x1a14	; 0x1a14 <toggle_button>
     4e8:	84 ff       	sbrs	r24, 4
     4ea:	12 c0       	rjmp	.+36     	; 0x510 <__EEPROM_REGION_LENGTH__+0x110>
     4ec:	86 e0       	ldi	r24, 0x06	; 6
     4ee:	0e 94 f9 0c 	call	0x19f2	; 0x19f2 <get_button>
     4f2:	84 ff       	sbrs	r24, 4
     4f4:	0b c0       	rjmp	.+22     	; 0x50c <__EEPROM_REGION_LENGTH__+0x10c>
     4f6:	80 91 8b 00 	lds	r24, 0x008B	; 0x80008b <Timer0FlagReg>
     4fa:	81 ff       	sbrs	r24, 1
     4fc:	f7 cf       	rjmp	.-18     	; 0x4ec <__EEPROM_REGION_LENGTH__+0xec>
     4fe:	80 91 2a 01 	lds	r24, 0x012A	; 0x80012a <ButtonSostStr+0x5>
     502:	8f 7e       	andi	r24, 0xEF	; 239
     504:	80 93 2a 01 	sts	0x012A, r24	; 0x80012a <ButtonSostStr+0x5>
     508:	c0 e0       	ldi	r28, 0x00	; 0
     50a:	13 c0       	rjmp	.+38     	; 0x532 <__EEPROM_REGION_LENGTH__+0x132>
     50c:	c1 e0       	ldi	r28, 0x01	; 1
     50e:	11 c0       	rjmp	.+34     	; 0x532 <__EEPROM_REGION_LENGTH__+0x132>
     510:	0e 94 7c 09 	call	0x12f8	; 0x12f8 <get_emergency_input>
     514:	81 11       	cpse	r24, r1
     516:	08 c0       	rjmp	.+16     	; 0x528 <__EEPROM_REGION_LENGTH__+0x128>
     518:	b1 9b       	sbis	0x16, 1	; 22
     51a:	08 c0       	rjmp	.+16     	; 0x52c <__EEPROM_REGION_LENGTH__+0x12c>
     51c:	0e 94 4f 11 	call	0x229e	; 0x229e <get_consol_number>
     520:	81 11       	cpse	r24, r1
     522:	06 c0       	rjmp	.+12     	; 0x530 <__EEPROM_REGION_LENGTH__+0x130>
     524:	c5 e0       	ldi	r28, 0x05	; 5
     526:	05 c0       	rjmp	.+10     	; 0x532 <__EEPROM_REGION_LENGTH__+0x132>
     528:	c2 e0       	ldi	r28, 0x02	; 2
     52a:	03 c0       	rjmp	.+6      	; 0x532 <__EEPROM_REGION_LENGTH__+0x132>
     52c:	c3 e0       	ldi	r28, 0x03	; 3
     52e:	01 c0       	rjmp	.+2      	; 0x532 <__EEPROM_REGION_LENGTH__+0x132>
     530:	c4 e0       	ldi	r28, 0x04	; 4
     532:	8c 2f       	mov	r24, r28
     534:	0e 94 38 11 	call	0x2270	; 0x2270 <priority_for_protocol>
     538:	c3 30       	cpi	r28, 0x03	; 3
     53a:	09 f4       	brne	.+2      	; 0x53e <__EEPROM_REGION_LENGTH__+0x13e>
     53c:	d7 c0       	rjmp	.+430    	; 0x6ec <__EEPROM_REGION_LENGTH__+0x2ec>
     53e:	20 f5       	brcc	.+72     	; 0x588 <__EEPROM_REGION_LENGTH__+0x188>
     540:	c1 30       	cpi	r28, 0x01	; 1
     542:	09 f4       	brne	.+2      	; 0x546 <__EEPROM_REGION_LENGTH__+0x146>
     544:	ed c0       	rjmp	.+474    	; 0x720 <__EEPROM_REGION_LENGTH__+0x320>
     546:	c2 30       	cpi	r28, 0x02	; 2
     548:	09 f0       	breq	.+2      	; 0x54c <__EEPROM_REGION_LENGTH__+0x14c>
     54a:	0b c1       	rjmp	.+534    	; 0x762 <__EEPROM_REGION_LENGTH__+0x362>
     54c:	0e 94 7c 09 	call	0x12f8	; 0x12f8 <get_emergency_input>
     550:	c8 2f       	mov	r28, r24
     552:	0e 94 27 0b 	call	0x164e	; 0x164e <power_led_green>
     556:	80 e0       	ldi	r24, 0x00	; 0
     558:	0e 94 dd 0b 	call	0x17ba	; 0x17ba <set_speaker_led_green>
     55c:	0e 94 1a 07 	call	0xe34	; 0xe34 <get_blocked_speaker_line>
     560:	8c 23       	and	r24, r28
     562:	0e 94 28 0c 	call	0x1850	; 0x1850 <set_speaker_led_red>
     566:	82 ee       	ldi	r24, 0xE2	; 226
     568:	90 e0       	ldi	r25, 0x00	; 0
     56a:	0e 94 ec 0a 	call	0x15d8	; 0x15d8 <display_set>
     56e:	85 e0       	ldi	r24, 0x05	; 5
     570:	0e 94 05 0a 	call	0x140a	; 0x140a <power_amplifier_control>
     574:	82 e0       	ldi	r24, 0x02	; 2
     576:	0e 94 d6 09 	call	0x13ac	; 0x13ac <select_audio_source>
     57a:	61 e0       	ldi	r22, 0x01	; 1
     57c:	8c 2f       	mov	r24, r28
     57e:	0e 94 4e 09 	call	0x129c	; 0x129c <set_relay>
     582:	61 e0       	ldi	r22, 0x01	; 1
     584:	81 e0       	ldi	r24, 0x01	; 1
     586:	e9 c0       	rjmp	.+466    	; 0x75a <__EEPROM_REGION_LENGTH__+0x35a>
     588:	c4 30       	cpi	r28, 0x04	; 4
     58a:	09 f4       	brne	.+2      	; 0x58e <__EEPROM_REGION_LENGTH__+0x18e>
     58c:	7e c0       	rjmp	.+252    	; 0x68a <__EEPROM_REGION_LENGTH__+0x28a>
     58e:	c5 30       	cpi	r28, 0x05	; 5
     590:	09 f0       	breq	.+2      	; 0x594 <__EEPROM_REGION_LENGTH__+0x194>
     592:	e7 c0       	rjmp	.+462    	; 0x762 <__EEPROM_REGION_LENGTH__+0x362>
     594:	61 e0       	ldi	r22, 0x01	; 1
     596:	87 e0       	ldi	r24, 0x07	; 7
     598:	0e 94 7f 09 	call	0x12fe	; 0x12fe <set_discret_output>
     59c:	87 99       	sbic	0x10, 7	; 16
     59e:	60 c0       	rjmp	.+192    	; 0x660 <__EEPROM_REGION_LENGTH__+0x260>
     5a0:	0e 94 27 0b 	call	0x164e	; 0x164e <power_led_green>
     5a4:	80 e0       	ldi	r24, 0x00	; 0
     5a6:	0e 94 28 0c 	call	0x1850	; 0x1850 <set_speaker_led_red>
     5aa:	80 91 f0 00 	lds	r24, 0x00F0	; 0x8000f0 <ConfigurationStr>
     5ae:	0e 94 e0 0a 	call	0x15c0	; 0x15c0 <bin_to_dec>
     5b2:	90 e0       	ldi	r25, 0x00	; 0
     5b4:	0e 94 ec 0a 	call	0x15d8	; 0x15d8 <display_set>
     5b8:	85 e0       	ldi	r24, 0x05	; 5
     5ba:	0e 94 05 0a 	call	0x140a	; 0x140a <power_amplifier_control>
     5be:	81 e0       	ldi	r24, 0x01	; 1
     5c0:	0e 94 70 09 	call	0x12e0	; 0x12e0 <get_relay_state>
     5c4:	88 23       	and	r24, r24
     5c6:	11 f0       	breq	.+4      	; 0x5cc <__EEPROM_REGION_LENGTH__+0x1cc>
     5c8:	85 e0       	ldi	r24, 0x05	; 5
     5ca:	01 c0       	rjmp	.+2      	; 0x5ce <__EEPROM_REGION_LENGTH__+0x1ce>
     5cc:	86 e0       	ldi	r24, 0x06	; 6
     5ce:	0e 94 d6 09 	call	0x13ac	; 0x13ac <select_audio_source>
     5d2:	86 e0       	ldi	r24, 0x06	; 6
     5d4:	0e 94 0a 0d 	call	0x1a14	; 0x1a14 <toggle_button>
     5d8:	81 ff       	sbrs	r24, 1
     5da:	2a c0       	rjmp	.+84     	; 0x630 <__EEPROM_REGION_LENGTH__+0x230>
     5dc:	84 e0       	ldi	r24, 0x04	; 4
     5de:	0e 94 0a 0d 	call	0x1a14	; 0x1a14 <toggle_button>
     5e2:	61 e0       	ldi	r22, 0x01	; 1
     5e4:	8f 3f       	cpi	r24, 0xFF	; 255
     5e6:	79 f4       	brne	.+30     	; 0x606 <__EEPROM_REGION_LENGTH__+0x206>
     5e8:	80 e0       	ldi	r24, 0x00	; 0
     5ea:	0e 94 4e 09 	call	0x129c	; 0x129c <set_relay>
     5ee:	0e 94 1a 07 	call	0xe34	; 0xe34 <get_blocked_speaker_line>
     5f2:	0e 94 dd 0b 	call	0x17ba	; 0x17ba <set_speaker_led_green>
     5f6:	80 91 32 01 	lds	r24, 0x0132	; 0x800132 <IndicatorsFacePanelStr+0x7>
     5fa:	8d 7f       	andi	r24, 0xFD	; 253
     5fc:	80 93 32 01 	sts	0x0132, r24	; 0x800132 <IndicatorsFacePanelStr+0x7>
     600:	10 92 28 01 	sts	0x0128, r1	; 0x800128 <ButtonSostStr+0x3>
     604:	0f c0       	rjmp	.+30     	; 0x624 <__EEPROM_REGION_LENGTH__+0x224>
     606:	8f ef       	ldi	r24, 0xFF	; 255
     608:	0e 94 4e 09 	call	0x129c	; 0x129c <set_relay>
     60c:	0e 94 1a 07 	call	0xe34	; 0xe34 <get_blocked_speaker_line>
     610:	0e 94 dd 0b 	call	0x17ba	; 0x17ba <set_speaker_led_green>
     614:	80 91 32 01 	lds	r24, 0x0132	; 0x800132 <IndicatorsFacePanelStr+0x7>
     618:	82 60       	ori	r24, 0x02	; 2
     61a:	80 93 32 01 	sts	0x0132, r24	; 0x800132 <IndicatorsFacePanelStr+0x7>
     61e:	8f ef       	ldi	r24, 0xFF	; 255
     620:	80 93 28 01 	sts	0x0128, r24	; 0x800128 <ButtonSostStr+0x3>
     624:	80 91 2a 01 	lds	r24, 0x012A	; 0x80012a <ButtonSostStr+0x5>
     628:	8d 7f       	andi	r24, 0xFD	; 253
     62a:	80 93 2a 01 	sts	0x012A, r24	; 0x80012a <ButtonSostStr+0x5>
     62e:	99 c0       	rjmp	.+306    	; 0x762 <__EEPROM_REGION_LENGTH__+0x362>
     630:	84 e0       	ldi	r24, 0x04	; 4
     632:	0e 94 0a 0d 	call	0x1a14	; 0x1a14 <toggle_button>
     636:	90 91 32 01 	lds	r25, 0x0132	; 0x800132 <IndicatorsFacePanelStr+0x7>
     63a:	8f 3f       	cpi	r24, 0xFF	; 255
     63c:	11 f4       	brne	.+4      	; 0x642 <__EEPROM_REGION_LENGTH__+0x242>
     63e:	92 60       	ori	r25, 0x02	; 2
     640:	01 c0       	rjmp	.+2      	; 0x644 <__EEPROM_REGION_LENGTH__+0x244>
     642:	9d 7f       	andi	r25, 0xFD	; 253
     644:	90 93 32 01 	sts	0x0132, r25	; 0x800132 <IndicatorsFacePanelStr+0x7>
     648:	84 e0       	ldi	r24, 0x04	; 4
     64a:	0e 94 0a 0d 	call	0x1a14	; 0x1a14 <toggle_button>
     64e:	61 e0       	ldi	r22, 0x01	; 1
     650:	0e 94 4e 09 	call	0x129c	; 0x129c <set_relay>
     654:	81 e0       	ldi	r24, 0x01	; 1
     656:	0e 94 70 09 	call	0x12e0	; 0x12e0 <get_relay_state>
     65a:	0e 94 dd 0b 	call	0x17ba	; 0x17ba <set_speaker_led_green>
     65e:	81 c0       	rjmp	.+258    	; 0x762 <__EEPROM_REGION_LENGTH__+0x362>
     660:	0e 94 3f 0b 	call	0x167e	; 0x167e <power_led_blink_green>
     664:	80 e0       	ldi	r24, 0x00	; 0
     666:	0e 94 dd 0b 	call	0x17ba	; 0x17ba <set_speaker_led_green>
     66a:	80 e0       	ldi	r24, 0x00	; 0
     66c:	0e 94 28 0c 	call	0x1850	; 0x1850 <set_speaker_led_red>
     670:	0e 94 1e 0b 	call	0x163c	; 0x163c <display_off>
     674:	61 e0       	ldi	r22, 0x01	; 1
     676:	80 e0       	ldi	r24, 0x00	; 0
     678:	0e 94 4e 09 	call	0x129c	; 0x129c <set_relay>
     67c:	86 e0       	ldi	r24, 0x06	; 6
     67e:	0e 94 d6 09 	call	0x13ac	; 0x13ac <select_audio_source>
     682:	8e e4       	ldi	r24, 0x4E	; 78
     684:	0e 94 05 0a 	call	0x140a	; 0x140a <power_amplifier_control>
     688:	6a c0       	rjmp	.+212    	; 0x75e <__EEPROM_REGION_LENGTH__+0x35e>
     68a:	0e 94 55 11 	call	0x22aa	; 0x22aa <get_consol_control>
     68e:	c8 2f       	mov	r28, r24
     690:	0e 94 4f 11 	call	0x229e	; 0x229e <get_consol_number>
     694:	85 30       	cpi	r24, 0x05	; 5
     696:	38 f0       	brcs	.+14     	; 0x6a6 <__EEPROM_REGION_LENGTH__+0x2a6>
     698:	0e 94 4f 11 	call	0x229e	; 0x229e <get_consol_number>
     69c:	8a 30       	cpi	r24, 0x0A	; 10
     69e:	18 f4       	brcc	.+6      	; 0x6a6 <__EEPROM_REGION_LENGTH__+0x2a6>
     6a0:	61 e0       	ldi	r22, 0x01	; 1
     6a2:	85 e0       	ldi	r24, 0x05	; 5
     6a4:	02 c0       	rjmp	.+4      	; 0x6aa <__EEPROM_REGION_LENGTH__+0x2aa>
     6a6:	61 e0       	ldi	r22, 0x01	; 1
     6a8:	87 e0       	ldi	r24, 0x07	; 7
     6aa:	0e 94 7f 09 	call	0x12fe	; 0x12fe <set_discret_output>
     6ae:	0e 94 27 0b 	call	0x164e	; 0x164e <power_led_green>
     6b2:	0e 94 4f 11 	call	0x229e	; 0x229e <get_consol_number>
     6b6:	80 6d       	ori	r24, 0xD0	; 208
     6b8:	90 e0       	ldi	r25, 0x00	; 0
     6ba:	0e 94 ec 0a 	call	0x15d8	; 0x15d8 <display_set>
     6be:	85 e0       	ldi	r24, 0x05	; 5
     6c0:	0e 94 05 0a 	call	0x140a	; 0x140a <power_amplifier_control>
     6c4:	84 e0       	ldi	r24, 0x04	; 4
     6c6:	0e 94 d6 09 	call	0x13ac	; 0x13ac <select_audio_source>
     6ca:	0e 94 52 11 	call	0x22a4	; 0x22a4 <get_consol_audio_chanel>
     6ce:	0e 94 1a 0a 	call	0x1434	; 0x1434 <consol_select_audio_channel>
     6d2:	61 e0       	ldi	r22, 0x01	; 1
     6d4:	8c 2f       	mov	r24, r28
     6d6:	0e 94 4e 09 	call	0x129c	; 0x129c <set_relay>
     6da:	80 e0       	ldi	r24, 0x00	; 0
     6dc:	0e 94 dd 0b 	call	0x17ba	; 0x17ba <set_speaker_led_green>
     6e0:	0e 94 1a 07 	call	0xe34	; 0xe34 <get_blocked_speaker_line>
     6e4:	8c 23       	and	r24, r28
     6e6:	0e 94 28 0c 	call	0x1850	; 0x1850 <set_speaker_led_red>
     6ea:	39 c0       	rjmp	.+114    	; 0x75e <__EEPROM_REGION_LENGTH__+0x35e>
     6ec:	0e 94 27 0b 	call	0x164e	; 0x164e <power_led_green>
     6f0:	80 e0       	ldi	r24, 0x00	; 0
     6f2:	0e 94 dd 0b 	call	0x17ba	; 0x17ba <set_speaker_led_green>
     6f6:	0e 94 1a 07 	call	0xe34	; 0xe34 <get_blocked_speaker_line>
     6fa:	0e 94 28 0c 	call	0x1850	; 0x1850 <set_speaker_led_red>
     6fe:	83 ee       	ldi	r24, 0xE3	; 227
     700:	90 e0       	ldi	r25, 0x00	; 0
     702:	0e 94 ec 0a 	call	0x15d8	; 0x15d8 <display_set>
     706:	85 e0       	ldi	r24, 0x05	; 5
     708:	0e 94 05 0a 	call	0x140a	; 0x140a <power_amplifier_control>
     70c:	83 e0       	ldi	r24, 0x03	; 3
     70e:	0e 94 d6 09 	call	0x13ac	; 0x13ac <select_audio_source>
     712:	61 e0       	ldi	r22, 0x01	; 1
     714:	8f ef       	ldi	r24, 0xFF	; 255
     716:	0e 94 4e 09 	call	0x129c	; 0x129c <set_relay>
     71a:	61 e0       	ldi	r22, 0x01	; 1
     71c:	82 e0       	ldi	r24, 0x02	; 2
     71e:	1d c0       	rjmp	.+58     	; 0x75a <__EEPROM_REGION_LENGTH__+0x35a>
     720:	0e 94 27 0b 	call	0x164e	; 0x164e <power_led_green>
     724:	80 e0       	ldi	r24, 0x00	; 0
     726:	0e 94 dd 0b 	call	0x17ba	; 0x17ba <set_speaker_led_green>
     72a:	0e 94 1a 07 	call	0xe34	; 0xe34 <get_blocked_speaker_line>
     72e:	90 91 62 00 	lds	r25, 0x0062	; 0x800062 <Timer1EMSelectZone>
     732:	89 23       	and	r24, r25
     734:	0e 94 28 0c 	call	0x1850	; 0x1850 <set_speaker_led_red>
     738:	81 ee       	ldi	r24, 0xE1	; 225
     73a:	90 e0       	ldi	r25, 0x00	; 0
     73c:	0e 94 ec 0a 	call	0x15d8	; 0x15d8 <display_set>
     740:	85 e0       	ldi	r24, 0x05	; 5
     742:	0e 94 05 0a 	call	0x140a	; 0x140a <power_amplifier_control>
     746:	81 e0       	ldi	r24, 0x01	; 1
     748:	0e 94 d6 09 	call	0x13ac	; 0x13ac <select_audio_source>
     74c:	80 91 62 00 	lds	r24, 0x0062	; 0x800062 <Timer1EMSelectZone>
     750:	61 e0       	ldi	r22, 0x01	; 1
     752:	0e 94 4e 09 	call	0x129c	; 0x129c <set_relay>
     756:	61 e0       	ldi	r22, 0x01	; 1
     758:	85 e0       	ldi	r24, 0x05	; 5
     75a:	0e 94 7f 09 	call	0x12fe	; 0x12fe <set_discret_output>
     75e:	0e 94 59 00 	call	0xb2	; 0xb2 <led_ALL_off>
     762:	82 e0       	ldi	r24, 0x02	; 2
     764:	0e 94 f9 0c 	call	0x19f2	; 0x19f2 <get_button>
     768:	c8 2f       	mov	r28, r24
     76a:	80 91 8b 00 	lds	r24, 0x008B	; 0x80008b <Timer0FlagReg>
     76e:	84 70       	andi	r24, 0x04	; 4
     770:	8c 2b       	or	r24, r28
     772:	81 f1       	breq	.+96     	; 0x7d4 <__EEPROM_REGION_LENGTH__+0x3d4>
     774:	82 e0       	ldi	r24, 0x02	; 2
     776:	0e 94 f9 0c 	call	0x19f2	; 0x19f2 <get_button>
     77a:	88 23       	and	r24, r24
     77c:	21 f0       	breq	.+8      	; 0x786 <__EEPROM_REGION_LENGTH__+0x386>
     77e:	80 91 8b 00 	lds	r24, 0x008B	; 0x80008b <Timer0FlagReg>
     782:	82 ff       	sbrs	r24, 2
     784:	f7 cf       	rjmp	.-18     	; 0x774 <__EEPROM_REGION_LENGTH__+0x374>
     786:	80 91 8b 00 	lds	r24, 0x008B	; 0x80008b <Timer0FlagReg>
     78a:	82 ff       	sbrs	r24, 2
     78c:	19 c0       	rjmp	.+50     	; 0x7c0 <__EEPROM_REGION_LENGTH__+0x3c0>
     78e:	0e 94 17 07 	call	0xe2e	; 0xe2e <get_lines_to_control>
     792:	8c 23       	and	r24, r28
     794:	19 f4       	brne	.+6      	; 0x79c <__EEPROM_REGION_LENGTH__+0x39c>
     796:	8c 2f       	mov	r24, r28
     798:	0e 94 cf 07 	call	0xf9e	; 0xf9e <one_line_check>
     79c:	8c 2f       	mov	r24, r28
     79e:	0e 94 11 07 	call	0xe22	; 0xe22 <set_lines_to_control>
     7a2:	82 e0       	ldi	r24, 0x02	; 2
     7a4:	0e 94 f9 0c 	call	0x19f2	; 0x19f2 <get_button>
     7a8:	81 11       	cpse	r24, r1
     7aa:	fb cf       	rjmp	.-10     	; 0x7a2 <__EEPROM_REGION_LENGTH__+0x3a2>
     7ac:	0e 94 17 07 	call	0xe2e	; 0xe2e <get_lines_to_control>
     7b0:	0e 94 1d 09 	call	0x123a	; 0x123a <eep_write_set_lines_to_control>
     7b4:	80 91 8b 00 	lds	r24, 0x008B	; 0x80008b <Timer0FlagReg>
     7b8:	8b 7f       	andi	r24, 0xFB	; 251
     7ba:	80 93 8b 00 	sts	0x008B, r24	; 0x80008b <Timer0FlagReg>
     7be:	0a c0       	rjmp	.+20     	; 0x7d4 <__EEPROM_REGION_LENGTH__+0x3d4>
     7c0:	8c 2f       	mov	r24, r28
     7c2:	0e 94 cf 07 	call	0xf9e	; 0xf9e <one_line_check>
     7c6:	0e 94 1e 07 	call	0xe3c	; 0xe3c <get_alarms_lines>
     7ca:	8c 23       	and	r24, r28
     7cc:	19 f0       	breq	.+6      	; 0x7d4 <__EEPROM_REGION_LENGTH__+0x3d4>
     7ce:	8c 2f       	mov	r24, r28
     7d0:	0e 94 16 08 	call	0x102c	; 0x102c <start_short_indication>
     7d4:	80 91 f4 00 	lds	r24, 0x00F4	; 0x8000f4 <ConfigurationStr+0x4>
     7d8:	81 11       	cpse	r24, r1
     7da:	0c c0       	rjmp	.+24     	; 0x7f4 <__EEPROM_REGION_LENGTH__+0x3f4>
     7dc:	80 91 8b 00 	lds	r24, 0x008B	; 0x80008b <Timer0FlagReg>
     7e0:	80 ff       	sbrs	r24, 0
     7e2:	12 c0       	rjmp	.+36     	; 0x808 <__DATA_REGION_LENGTH__+0x8>
     7e4:	0e 94 9c 07 	call	0xf38	; 0xf38 <measure_resistence_line_after_timeout>
     7e8:	80 91 8b 00 	lds	r24, 0x008B	; 0x80008b <Timer0FlagReg>
     7ec:	8e 7f       	andi	r24, 0xFE	; 254
     7ee:	80 93 8b 00 	sts	0x008B, r24	; 0x80008b <Timer0FlagReg>
     7f2:	0a c0       	rjmp	.+20     	; 0x808 <__DATA_REGION_LENGTH__+0x8>
     7f4:	0e 94 de 0d 	call	0x1bbc	; 0x1bbc <get_hour_counter>
     7f8:	90 91 f4 00 	lds	r25, 0x00F4	; 0x8000f4 <ConfigurationStr+0x4>
     7fc:	89 17       	cp	r24, r25
     7fe:	20 f0       	brcs	.+8      	; 0x808 <__DATA_REGION_LENGTH__+0x8>
     800:	0e 94 9c 07 	call	0xf38	; 0xf38 <measure_resistence_line_after_timeout>
     804:	0e 94 e1 0d 	call	0x1bc2	; 0x1bc2 <clear_hour_counter>
     808:	80 91 f2 00 	lds	r24, 0x00F2	; 0x8000f2 <ConfigurationStr+0x2>
     80c:	81 30       	cpi	r24, 0x01	; 1
     80e:	19 f4       	brne	.+6      	; 0x816 <__DATA_REGION_LENGTH__+0x16>
     810:	0e 94 c7 04 	call	0x98e	; 0x98e <charge_monitoring_on>
     814:	03 c0       	rjmp	.+6      	; 0x81c <__DATA_REGION_LENGTH__+0x1c>
     816:	dd 9a       	sbi	0x1b, 5	; 27
     818:	0e 94 bd 04 	call	0x97a	; 0x97a <clear_charge_indication>
     81c:	80 91 33 01 	lds	r24, 0x0133	; 0x800133 <IndicatorsFacePanelStr+0x8>
     820:	87 ff       	sbrs	r24, 7
     822:	02 c0       	rjmp	.+4      	; 0x828 <__DATA_REGION_LENGTH__+0x28>
     824:	61 e0       	ldi	r22, 0x01	; 1
     826:	01 c0       	rjmp	.+2      	; 0x82a <__DATA_REGION_LENGTH__+0x2a>
     828:	62 e0       	ldi	r22, 0x02	; 2
     82a:	83 e0       	ldi	r24, 0x03	; 3
     82c:	0e 94 7f 09 	call	0x12fe	; 0x12fe <set_discret_output>
     830:	0e 94 1a 07 	call	0xe34	; 0xe34 <get_blocked_speaker_line>
     834:	8f 3f       	cpi	r24, 0xFF	; 255
     836:	11 f0       	breq	.+4      	; 0x83c <__DATA_REGION_LENGTH__+0x3c>
     838:	61 e0       	ldi	r22, 0x01	; 1
     83a:	0c c0       	rjmp	.+24     	; 0x854 <__DATA_REGION_LENGTH__+0x54>
     83c:	0e 94 1e 07 	call	0xe3c	; 0xe3c <get_alarms_lines>
     840:	c8 2f       	mov	r28, r24
     842:	0e 94 17 07 	call	0xe2e	; 0xe2e <get_lines_to_control>
     846:	8c 23       	and	r24, r28
     848:	b9 f7       	brne	.-18     	; 0x838 <__DATA_REGION_LENGTH__+0x38>
     84a:	0e 94 af 04 	call	0x95e	; 0x95e <get_charge_indication>
     84e:	81 11       	cpse	r24, r1
     850:	f3 cf       	rjmp	.-26     	; 0x838 <__DATA_REGION_LENGTH__+0x38>
     852:	62 e0       	ldi	r22, 0x02	; 2
     854:	84 e0       	ldi	r24, 0x04	; 4
     856:	0e 94 7f 09 	call	0x12fe	; 0x12fe <set_discret_output>
     85a:	0e 94 1a 07 	call	0xe34	; 0xe34 <get_blocked_speaker_line>
     85e:	c8 2f       	mov	r28, r24
     860:	0e 94 17 07 	call	0xe2e	; 0xe2e <get_lines_to_control>
     864:	2c 2f       	mov	r18, r28
     866:	30 e0       	ldi	r19, 0x00	; 0
     868:	20 95       	com	r18
     86a:	30 95       	com	r19
     86c:	90 e0       	ldi	r25, 0x00	; 0
     86e:	82 23       	and	r24, r18
     870:	93 23       	and	r25, r19
     872:	89 2b       	or	r24, r25
     874:	11 f0       	breq	.+4      	; 0x87a <__stack+0x1b>
     876:	61 e0       	ldi	r22, 0x01	; 1
     878:	1c c0       	rjmp	.+56     	; 0x8b2 <__stack+0x53>
     87a:	0e 94 af 04 	call	0x95e	; 0x95e <get_charge_indication>
     87e:	88 23       	and	r24, r24
     880:	21 f0       	breq	.+8      	; 0x88a <__stack+0x2b>
     882:	80 91 f5 00 	lds	r24, 0x00F5	; 0x8000f5 <ConfigurationStr+0x5>
     886:	81 11       	cpse	r24, r1
     888:	f6 cf       	rjmp	.-20     	; 0x876 <__stack+0x17>
     88a:	0e 94 1e 07 	call	0xe3c	; 0xe3c <get_alarms_lines>
     88e:	c8 2f       	mov	r28, r24
     890:	0e 94 17 07 	call	0xe2e	; 0xe2e <get_lines_to_control>
     894:	8c 23       	and	r24, r28
     896:	21 f0       	breq	.+8      	; 0x8a0 <__stack+0x41>
     898:	80 91 f5 00 	lds	r24, 0x00F5	; 0x8000f5 <ConfigurationStr+0x5>
     89c:	81 11       	cpse	r24, r1
     89e:	eb cf       	rjmp	.-42     	; 0x876 <__stack+0x17>
     8a0:	80 91 33 01 	lds	r24, 0x0133	; 0x800133 <IndicatorsFacePanelStr+0x8>
     8a4:	87 ff       	sbrs	r24, 7
     8a6:	04 c0       	rjmp	.+8      	; 0x8b0 <__stack+0x51>
     8a8:	80 91 f5 00 	lds	r24, 0x00F5	; 0x8000f5 <ConfigurationStr+0x5>
     8ac:	81 11       	cpse	r24, r1
     8ae:	e3 cf       	rjmp	.-58     	; 0x876 <__stack+0x17>
     8b0:	62 e0       	ldi	r22, 0x02	; 2
     8b2:	86 e0       	ldi	r24, 0x06	; 6
     8b4:	0e 94 7f 09 	call	0x12fe	; 0x12fe <set_discret_output>
     8b8:	c6 cc       	rjmp	.-1652   	; 0x246 <main+0x136>

000008ba <adc_init>:
     8ba:	86 b1       	in	r24, 0x06	; 6
     8bc:	87 68       	ori	r24, 0x87	; 135
     8be:	86 b9       	out	0x06, r24	; 6
     8c0:	08 95       	ret

000008c2 <get_adc_measure>:
     8c2:	80 64       	ori	r24, 0x40	; 64
     8c4:	87 b9       	out	0x07, r24	; 7
     8c6:	80 e4       	ldi	r24, 0x40	; 64
     8c8:	80 93 66 00 	sts	0x0066, r24	; 0x800066 <AdcMeasureCounters>
     8cc:	10 92 65 00 	sts	0x0065, r1	; 0x800065 <__data_end+0x1>
     8d0:	10 92 64 00 	sts	0x0064, r1	; 0x800064 <__data_end>
     8d4:	33 9a       	sbi	0x06, 3	; 6
     8d6:	36 9a       	sbi	0x06, 6	; 6
     8d8:	80 91 66 00 	lds	r24, 0x0066	; 0x800066 <AdcMeasureCounters>
     8dc:	81 11       	cpse	r24, r1
     8de:	fc cf       	rjmp	.-8      	; 0x8d8 <get_adc_measure+0x16>
     8e0:	80 91 64 00 	lds	r24, 0x0064	; 0x800064 <__data_end>
     8e4:	90 91 65 00 	lds	r25, 0x0065	; 0x800065 <__data_end+0x1>
     8e8:	08 95       	ret

000008ea <__vector_16>:
     8ea:	1f 92       	push	r1
     8ec:	0f 92       	push	r0
     8ee:	0f b6       	in	r0, 0x3f	; 63
     8f0:	0f 92       	push	r0
     8f2:	11 24       	eor	r1, r1
     8f4:	2f 93       	push	r18
     8f6:	3f 93       	push	r19
     8f8:	8f 93       	push	r24
     8fa:	9f 93       	push	r25
     8fc:	24 b1       	in	r18, 0x04	; 4
     8fe:	35 b1       	in	r19, 0x05	; 5
     900:	80 91 64 00 	lds	r24, 0x0064	; 0x800064 <__data_end>
     904:	90 91 65 00 	lds	r25, 0x0065	; 0x800065 <__data_end+0x1>
     908:	82 0f       	add	r24, r18
     90a:	93 1f       	adc	r25, r19
     90c:	90 93 65 00 	sts	0x0065, r25	; 0x800065 <__data_end+0x1>
     910:	80 93 64 00 	sts	0x0064, r24	; 0x800064 <__data_end>
     914:	80 91 66 00 	lds	r24, 0x0066	; 0x800066 <AdcMeasureCounters>
     918:	81 50       	subi	r24, 0x01	; 1
     91a:	80 93 66 00 	sts	0x0066, r24	; 0x800066 <AdcMeasureCounters>
     91e:	81 11       	cpse	r24, r1
     920:	0f c0       	rjmp	.+30     	; 0x940 <__vector_16+0x56>
     922:	33 98       	cbi	0x06, 3	; 6
     924:	80 91 64 00 	lds	r24, 0x0064	; 0x800064 <__data_end>
     928:	90 91 65 00 	lds	r25, 0x0065	; 0x800065 <__data_end+0x1>
     92c:	24 e0       	ldi	r18, 0x04	; 4
     92e:	96 95       	lsr	r25
     930:	87 95       	ror	r24
     932:	2a 95       	dec	r18
     934:	e1 f7       	brne	.-8      	; 0x92e <__vector_16+0x44>
     936:	90 93 65 00 	sts	0x0065, r25	; 0x800065 <__data_end+0x1>
     93a:	80 93 64 00 	sts	0x0064, r24	; 0x800064 <__data_end>
     93e:	01 c0       	rjmp	.+2      	; 0x942 <__vector_16+0x58>
     940:	36 9a       	sbi	0x06, 6	; 6
     942:	9f 91       	pop	r25
     944:	8f 91       	pop	r24
     946:	3f 91       	pop	r19
     948:	2f 91       	pop	r18
     94a:	0f 90       	pop	r0
     94c:	0f be       	out	0x3f, r0	; 63
     94e:	0f 90       	pop	r0
     950:	1f 90       	pop	r1
     952:	18 95       	reti

00000954 <charge_init>:
     954:	d5 9a       	sbi	0x1a, 5	; 26
     956:	dd 9a       	sbi	0x1b, 5	; 27
     958:	a4 98       	cbi	0x14, 4	; 20
     95a:	ac 98       	cbi	0x15, 4	; 21
     95c:	08 95       	ret

0000095e <get_charge_indication>:
     95e:	9c 9b       	sbis	0x13, 4	; 19
     960:	05 c0       	rjmp	.+10     	; 0x96c <get_charge_indication+0xe>
     962:	81 e0       	ldi	r24, 0x01	; 1
     964:	80 93 61 00 	sts	0x0061, r24	; 0x800061 <DisplayBright>
     968:	8e ea       	ldi	r24, 0xAE	; 174
     96a:	08 95       	ret
     96c:	80 91 60 00 	lds	r24, 0x0060	; 0x800060 <TempDisplayBright>
     970:	80 93 61 00 	sts	0x0061, r24	; 0x800061 <DisplayBright>
     974:	80 91 69 00 	lds	r24, 0x0069	; 0x800069 <ChargeIndicate>
     978:	08 95       	ret

0000097a <clear_charge_indication>:
     97a:	9c 99       	sbic	0x13, 4	; 19
     97c:	05 c0       	rjmp	.+10     	; 0x988 <clear_charge_indication+0xe>
     97e:	80 91 34 01 	lds	r24, 0x0134	; 0x800134 <IndicatorsFacePanelStr+0x9>
     982:	8d 7f       	andi	r24, 0xFD	; 253
     984:	80 93 34 01 	sts	0x0134, r24	; 0x800134 <IndicatorsFacePanelStr+0x9>
     988:	10 92 69 00 	sts	0x0069, r1	; 0x800069 <ChargeIndicate>
     98c:	08 95       	ret

0000098e <charge_monitoring_on>:
     98e:	1f 93       	push	r17
     990:	cf 93       	push	r28
     992:	df 93       	push	r29
     994:	90 91 8b 00 	lds	r25, 0x008B	; 0x80008b <Timer0FlagReg>
     998:	80 91 8b 00 	lds	r24, 0x008B	; 0x80008b <Timer0FlagReg>
     99c:	90 72       	andi	r25, 0x20	; 32
     99e:	80 74       	andi	r24, 0x40	; 64
     9a0:	89 2b       	or	r24, r25
     9a2:	09 f0       	breq	.+2      	; 0x9a6 <charge_monitoring_on+0x18>
     9a4:	5b c0       	rjmp	.+182    	; 0xa5c <charge_monitoring_on+0xce>
     9a6:	dd 9a       	sbi	0x1b, 5	; 27
     9a8:	88 ee       	ldi	r24, 0xE8	; 232
     9aa:	93 e0       	ldi	r25, 0x03	; 3
     9ac:	0e 94 eb 0d 	call	0x1bd6	; 0x1bd6 <ms_delay>
     9b0:	18 e0       	ldi	r17, 0x08	; 8
     9b2:	c0 e0       	ldi	r28, 0x00	; 0
     9b4:	d0 e0       	ldi	r29, 0x00	; 0
     9b6:	86 e0       	ldi	r24, 0x06	; 6
     9b8:	0e 94 61 04 	call	0x8c2	; 0x8c2 <get_adc_measure>
     9bc:	c8 0f       	add	r28, r24
     9be:	d9 1f       	adc	r29, r25
     9c0:	11 50       	subi	r17, 0x01	; 1
     9c2:	c9 f7       	brne	.-14     	; 0x9b6 <charge_monitoring_on+0x28>
     9c4:	83 e0       	ldi	r24, 0x03	; 3
     9c6:	d6 95       	lsr	r29
     9c8:	c7 95       	ror	r28
     9ca:	8a 95       	dec	r24
     9cc:	e1 f7       	brne	.-8      	; 0x9c6 <charge_monitoring_on+0x38>
     9ce:	8b e0       	ldi	r24, 0x0B	; 11
     9d0:	8c 9f       	mul	r24, r28
     9d2:	90 01       	movw	r18, r0
     9d4:	8d 9f       	mul	r24, r29
     9d6:	30 0d       	add	r19, r0
     9d8:	11 24       	eor	r1, r1
     9da:	e9 01       	movw	r28, r18
     9dc:	d6 95       	lsr	r29
     9de:	c7 95       	ror	r28
     9e0:	d6 95       	lsr	r29
     9e2:	c7 95       	ror	r28
     9e4:	c2 0f       	add	r28, r18
     9e6:	d3 1f       	adc	r29, r19
     9e8:	45 e0       	ldi	r20, 0x05	; 5
     9ea:	36 95       	lsr	r19
     9ec:	27 95       	ror	r18
     9ee:	4a 95       	dec	r20
     9f0:	e1 f7       	brne	.-8      	; 0x9ea <charge_monitoring_on+0x5c>
     9f2:	c2 1b       	sub	r28, r18
     9f4:	d3 0b       	sbc	r29, r19
     9f6:	d0 93 68 00 	sts	0x0068, r29	; 0x800068 <measure.2191+0x1>
     9fa:	c0 93 67 00 	sts	0x0067, r28	; 0x800067 <measure.2191>
     9fe:	c3 33       	cpi	r28, 0x33	; 51
     a00:	d1 05       	cpc	r29, r1
     a02:	20 f0       	brcs	.+8      	; 0xa0c <charge_monitoring_on+0x7e>
     a04:	c1 3d       	cpi	r28, 0xD1	; 209
     a06:	87 e0       	ldi	r24, 0x07	; 7
     a08:	d8 07       	cpc	r29, r24
     a0a:	20 f4       	brcc	.+8      	; 0xa14 <charge_monitoring_on+0x86>
     a0c:	8f ea       	ldi	r24, 0xAF	; 175
     a0e:	80 93 69 00 	sts	0x0069, r24	; 0x800069 <ChargeIndicate>
     a12:	0a c0       	rjmp	.+20     	; 0xa28 <charge_monitoring_on+0x9a>
     a14:	cd 32       	cpi	r28, 0x2D	; 45
     a16:	8c e4       	ldi	r24, 0x4C	; 76
     a18:	d8 07       	cpc	r29, r24
     a1a:	40 f4       	brcc	.+16     	; 0xa2c <charge_monitoring_on+0x9e>
     a1c:	8f ea       	ldi	r24, 0xAF	; 175
     a1e:	80 93 69 00 	sts	0x0069, r24	; 0x800069 <ChargeIndicate>
     a22:	c1 35       	cpi	r28, 0x51	; 81
     a24:	d6 44       	sbci	r29, 0x46	; 70
     a26:	a0 f4       	brcc	.+40     	; 0xa50 <charge_monitoring_on+0xc2>
     a28:	dd 9a       	sbi	0x1b, 5	; 27
     a2a:	13 c0       	rjmp	.+38     	; 0xa52 <charge_monitoring_on+0xc4>
     a2c:	c4 31       	cpi	r28, 0x14	; 20
     a2e:	80 e5       	ldi	r24, 0x50	; 80
     a30:	d8 07       	cpc	r29, r24
     a32:	70 f0       	brcs	.+28     	; 0xa50 <charge_monitoring_on+0xc2>
     a34:	0e 94 bd 04 	call	0x97a	; 0x97a <clear_charge_indication>
     a38:	c8 37       	cpi	r28, 0x78	; 120
     a3a:	d9 46       	sbci	r29, 0x69	; 105
     a3c:	10 f0       	brcs	.+4      	; 0xa42 <charge_monitoring_on+0xb4>
     a3e:	dd 9a       	sbi	0x1b, 5	; 27
     a40:	01 c0       	rjmp	.+2      	; 0xa44 <charge_monitoring_on+0xb6>
     a42:	dd 98       	cbi	0x1b, 5	; 27
     a44:	0e 94 e6 0d 	call	0x1bcc	; 0x1bcc <clear_charge_hour_counter>
     a48:	80 91 8b 00 	lds	r24, 0x008B	; 0x80008b <Timer0FlagReg>
     a4c:	80 64       	ori	r24, 0x40	; 64
     a4e:	04 c0       	rjmp	.+8      	; 0xa58 <charge_monitoring_on+0xca>
     a50:	dd 98       	cbi	0x1b, 5	; 27
     a52:	80 91 8b 00 	lds	r24, 0x008B	; 0x80008b <Timer0FlagReg>
     a56:	80 62       	ori	r24, 0x20	; 32
     a58:	80 93 8b 00 	sts	0x008B, r24	; 0x80008b <Timer0FlagReg>
     a5c:	df 91       	pop	r29
     a5e:	cf 91       	pop	r28
     a60:	1f 91       	pop	r17
     a62:	08 95       	ret

00000a64 <clear_line_status>:
     a64:	80 95       	com	r24
     a66:	e8 ef       	ldi	r30, 0xF8	; 248
     a68:	f0 e0       	ldi	r31, 0x00	; 0
     a6a:	90 81       	ld	r25, Z
     a6c:	98 23       	and	r25, r24
     a6e:	90 83       	st	Z, r25
     a70:	91 81       	ldd	r25, Z+1	; 0x01
     a72:	98 23       	and	r25, r24
     a74:	91 83       	std	Z+1, r25	; 0x01
     a76:	92 81       	ldd	r25, Z+2	; 0x02
     a78:	98 23       	and	r25, r24
     a7a:	92 83       	std	Z+2, r25	; 0x02
     a7c:	93 81       	ldd	r25, Z+3	; 0x03
     a7e:	98 23       	and	r25, r24
     a80:	93 83       	std	Z+3, r25	; 0x03
     a82:	94 81       	ldd	r25, Z+4	; 0x04
     a84:	89 23       	and	r24, r25
     a86:	84 83       	std	Z+4, r24	; 0x04
     a88:	08 95       	ret

00000a8a <measure_resistence_one_line>:
     a8a:	cf 92       	push	r12
     a8c:	df 92       	push	r13
     a8e:	ef 92       	push	r14
     a90:	ff 92       	push	r15
     a92:	1f 93       	push	r17
     a94:	cf 93       	push	r28
     a96:	df 93       	push	r29
     a98:	7b 01       	movw	r14, r22
     a9a:	c1 e0       	ldi	r28, 0x01	; 1
     a9c:	d0 e0       	ldi	r29, 0x00	; 0
     a9e:	01 c0       	rjmp	.+2      	; 0xaa2 <measure_resistence_one_line+0x18>
     aa0:	cc 0f       	add	r28, r28
     aa2:	8a 95       	dec	r24
     aa4:	ea f7       	brpl	.-6      	; 0xaa0 <measure_resistence_one_line+0x16>
     aa6:	62 e0       	ldi	r22, 0x02	; 2
     aa8:	8c 2f       	mov	r24, r28
     aaa:	0e 94 4e 09 	call	0x129c	; 0x129c <set_relay>
     aae:	8c 2f       	mov	r24, r28
     ab0:	0e 94 47 0b 	call	0x168e	; 0x168e <set_line_checker_led_green>
     ab4:	c7 01       	movw	r24, r14
     ab6:	0e 94 eb 0d 	call	0x1bd6	; 0x1bd6 <ms_delay>
     aba:	18 e0       	ldi	r17, 0x08	; 8
     abc:	c0 e0       	ldi	r28, 0x00	; 0
     abe:	d0 e0       	ldi	r29, 0x00	; 0
     ac0:	87 e0       	ldi	r24, 0x07	; 7
     ac2:	0e 94 61 04 	call	0x8c2	; 0x8c2 <get_adc_measure>
     ac6:	c8 0f       	add	r28, r24
     ac8:	d9 1f       	adc	r29, r25
     aca:	11 50       	subi	r17, 0x01	; 1
     acc:	c9 f7       	brne	.-14     	; 0xac0 <measure_resistence_one_line+0x36>
     ace:	53 e0       	ldi	r21, 0x03	; 3
     ad0:	d6 95       	lsr	r29
     ad2:	c7 95       	ror	r28
     ad4:	5a 95       	dec	r21
     ad6:	e1 f7       	brne	.-8      	; 0xad0 <measure_resistence_one_line+0x46>
     ad8:	c7 3e       	cpi	r28, 0xE7	; 231
     ada:	87 e0       	ldi	r24, 0x07	; 7
     adc:	d8 07       	cpc	r29, r24
     ade:	10 f0       	brcs	.+4      	; 0xae4 <measure_resistence_one_line+0x5a>
     ae0:	c7 ee       	ldi	r28, 0xE7	; 231
     ae2:	d7 e0       	ldi	r29, 0x07	; 7
     ae4:	62 e0       	ldi	r22, 0x02	; 2
     ae6:	80 e0       	ldi	r24, 0x00	; 0
     ae8:	0e 94 4e 09 	call	0x129c	; 0x129c <set_relay>
     aec:	20 91 6c 00 	lds	r18, 0x006C	; 0x80006c <CalibrCoeff>
     af0:	30 91 6d 00 	lds	r19, 0x006D	; 0x80006d <CalibrCoeff+0x1>
     af4:	c6 34       	cpi	r28, 0x46	; 70
     af6:	87 e0       	ldi	r24, 0x07	; 7
     af8:	d8 07       	cpc	r29, r24
     afa:	38 f4       	brcc	.+14     	; 0xb0a <measure_resistence_one_line+0x80>
     afc:	c9 01       	movw	r24, r18
     afe:	45 e0       	ldi	r20, 0x05	; 5
     b00:	96 95       	lsr	r25
     b02:	87 95       	ror	r24
     b04:	4a 95       	dec	r20
     b06:	e1 f7       	brne	.-8      	; 0xb00 <measure_resistence_one_line+0x76>
     b08:	20 c0       	rjmp	.+64     	; 0xb4a <measure_resistence_one_line+0xc0>
     b0a:	ce 01       	movw	r24, r28
     b0c:	86 54       	subi	r24, 0x46	; 70
     b0e:	97 40       	sbci	r25, 0x07	; 7
     b10:	88 35       	cpi	r24, 0x58	; 88
     b12:	91 05       	cpc	r25, r1
     b14:	78 f4       	brcc	.+30     	; 0xb34 <measure_resistence_one_line+0xaa>
     b16:	d9 01       	movw	r26, r18
     b18:	aa 0f       	add	r26, r26
     b1a:	ab 2f       	mov	r26, r27
     b1c:	aa 1f       	adc	r26, r26
     b1e:	bb 0b       	sbc	r27, r27
     b20:	b1 95       	neg	r27
     b22:	a2 0f       	add	r26, r18
     b24:	b3 1f       	adc	r27, r19
     b26:	a9 01       	movw	r20, r18
     b28:	83 e0       	ldi	r24, 0x03	; 3
     b2a:	56 95       	lsr	r21
     b2c:	47 95       	ror	r20
     b2e:	8a 95       	dec	r24
     b30:	e1 f7       	brne	.-8      	; 0xb2a <measure_resistence_one_line+0xa0>
     b32:	1e c0       	rjmp	.+60     	; 0xb70 <measure_resistence_one_line+0xe6>
     b34:	ce 01       	movw	r24, r28
     b36:	8e 59       	subi	r24, 0x9E	; 158
     b38:	97 40       	sbci	r25, 0x07	; 7
     b3a:	80 97       	sbiw	r24, 0x20	; 32
     b3c:	50 f4       	brcc	.+20     	; 0xb52 <measure_resistence_one_line+0xc8>
     b3e:	c9 01       	movw	r24, r18
     b40:	f3 e0       	ldi	r31, 0x03	; 3
     b42:	96 95       	lsr	r25
     b44:	87 95       	ror	r24
     b46:	fa 95       	dec	r31
     b48:	e1 f7       	brne	.-8      	; 0xb42 <measure_resistence_one_line+0xb8>
     b4a:	d9 01       	movw	r26, r18
     b4c:	a8 1b       	sub	r26, r24
     b4e:	b9 0b       	sbc	r27, r25
     b50:	11 c0       	rjmp	.+34     	; 0xb74 <measure_resistence_one_line+0xea>
     b52:	c9 01       	movw	r24, r18
     b54:	73 e0       	ldi	r23, 0x03	; 3
     b56:	96 95       	lsr	r25
     b58:	87 95       	ror	r24
     b5a:	7a 95       	dec	r23
     b5c:	e1 f7       	brne	.-8      	; 0xb56 <measure_resistence_one_line+0xcc>
     b5e:	d9 01       	movw	r26, r18
     b60:	a8 1b       	sub	r26, r24
     b62:	b9 0b       	sbc	r27, r25
     b64:	a9 01       	movw	r20, r18
     b66:	e5 e0       	ldi	r30, 0x05	; 5
     b68:	56 95       	lsr	r21
     b6a:	47 95       	ror	r20
     b6c:	ea 95       	dec	r30
     b6e:	e1 f7       	brne	.-8      	; 0xb68 <measure_resistence_one_line+0xde>
     b70:	a4 1b       	sub	r26, r20
     b72:	b5 0b       	sbc	r27, r21
     b74:	80 e0       	ldi	r24, 0x00	; 0
     b76:	98 e0       	ldi	r25, 0x08	; 8
     b78:	6c 01       	movw	r12, r24
     b7a:	cc 1a       	sub	r12, r28
     b7c:	dd 0a       	sbc	r13, r29
     b7e:	e1 2c       	mov	r14, r1
     b80:	f1 2c       	mov	r15, r1
     b82:	9e 01       	movw	r18, r28
     b84:	0e 94 0b 14 	call	0x2816	; 0x2816 <__umulhisi3>
     b88:	6b 5f       	subi	r22, 0xFB	; 251
     b8a:	7f 4f       	sbci	r23, 0xFF	; 255
     b8c:	8f 4f       	sbci	r24, 0xFF	; 255
     b8e:	9f 4f       	sbci	r25, 0xFF	; 255
     b90:	2a e0       	ldi	r18, 0x0A	; 10
     b92:	30 e0       	ldi	r19, 0x00	; 0
     b94:	40 e0       	ldi	r20, 0x00	; 0
     b96:	50 e0       	ldi	r21, 0x00	; 0
     b98:	0e 94 e3 13 	call	0x27c6	; 0x27c6 <__udivmodsi4>
     b9c:	d7 01       	movw	r26, r14
     b9e:	c6 01       	movw	r24, r12
     ba0:	b6 95       	lsr	r27
     ba2:	a7 95       	ror	r26
     ba4:	97 95       	ror	r25
     ba6:	87 95       	ror	r24
     ba8:	bc 01       	movw	r22, r24
     baa:	cd 01       	movw	r24, r26
     bac:	62 0f       	add	r22, r18
     bae:	73 1f       	adc	r23, r19
     bb0:	84 1f       	adc	r24, r20
     bb2:	95 1f       	adc	r25, r21
     bb4:	a7 01       	movw	r20, r14
     bb6:	96 01       	movw	r18, r12
     bb8:	0e 94 e3 13 	call	0x27c6	; 0x27c6 <__udivmodsi4>
     bbc:	c9 01       	movw	r24, r18
     bbe:	df 91       	pop	r29
     bc0:	cf 91       	pop	r28
     bc2:	1f 91       	pop	r17
     bc4:	ff 90       	pop	r15
     bc6:	ef 90       	pop	r14
     bc8:	df 90       	pop	r13
     bca:	cf 90       	pop	r12
     bcc:	08 95       	ret

00000bce <calculate_procent>:
     bce:	20 91 6a 00 	lds	r18, 0x006A	; 0x80006a <LevelLC>
     bd2:	22 30       	cpi	r18, 0x02	; 2
     bd4:	e1 f0       	breq	.+56     	; 0xc0e <calculate_procent+0x40>
     bd6:	98 f4       	brcc	.+38     	; 0xbfe <calculate_procent+0x30>
     bd8:	21 30       	cpi	r18, 0x01	; 1
     bda:	99 f5       	brne	.+102    	; 0xc42 <calculate_procent+0x74>
     bdc:	9c 01       	movw	r18, r24
     bde:	b4 e0       	ldi	r27, 0x04	; 4
     be0:	36 95       	lsr	r19
     be2:	27 95       	ror	r18
     be4:	ba 95       	dec	r27
     be6:	e1 f7       	brne	.-8      	; 0xbe0 <calculate_procent+0x12>
     be8:	ac 01       	movw	r20, r24
     bea:	65 e0       	ldi	r22, 0x05	; 5
     bec:	56 95       	lsr	r21
     bee:	47 95       	ror	r20
     bf0:	6a 95       	dec	r22
     bf2:	e1 f7       	brne	.-8      	; 0xbec <calculate_procent+0x1e>
     bf4:	24 0f       	add	r18, r20
     bf6:	35 1f       	adc	r19, r21
     bf8:	89 2f       	mov	r24, r25
     bfa:	99 27       	eor	r25, r25
     bfc:	1f c0       	rjmp	.+62     	; 0xc3c <calculate_procent+0x6e>
     bfe:	23 30       	cpi	r18, 0x03	; 3
     c00:	59 f0       	breq	.+22     	; 0xc18 <calculate_procent+0x4a>
     c02:	24 30       	cpi	r18, 0x04	; 4
     c04:	f1 f4       	brne	.+60     	; 0xc42 <calculate_procent+0x74>
     c06:	9c 01       	movw	r18, r24
     c08:	36 95       	lsr	r19
     c0a:	27 95       	ror	r18
     c0c:	0a c0       	rjmp	.+20     	; 0xc22 <calculate_procent+0x54>
     c0e:	96 95       	lsr	r25
     c10:	87 95       	ror	r24
     c12:	96 95       	lsr	r25
     c14:	87 95       	ror	r24
     c16:	08 95       	ret
     c18:	9c 01       	movw	r18, r24
     c1a:	36 95       	lsr	r19
     c1c:	27 95       	ror	r18
     c1e:	36 95       	lsr	r19
     c20:	27 95       	ror	r18
     c22:	ac 01       	movw	r20, r24
     c24:	63 e0       	ldi	r22, 0x03	; 3
     c26:	56 95       	lsr	r21
     c28:	47 95       	ror	r20
     c2a:	6a 95       	dec	r22
     c2c:	e1 f7       	brne	.-8      	; 0xc26 <calculate_procent+0x58>
     c2e:	24 0f       	add	r18, r20
     c30:	35 1f       	adc	r19, r21
     c32:	75 e0       	ldi	r23, 0x05	; 5
     c34:	96 95       	lsr	r25
     c36:	87 95       	ror	r24
     c38:	7a 95       	dec	r23
     c3a:	e1 f7       	brne	.-8      	; 0xc34 <calculate_procent+0x66>
     c3c:	82 0f       	add	r24, r18
     c3e:	93 1f       	adc	r25, r19
     c40:	08 95       	ret
     c42:	80 e0       	ldi	r24, 0x00	; 0
     c44:	90 e0       	ldi	r25, 0x00	; 0
     c46:	08 95       	ret

00000c48 <line_check>:
     c48:	1f 93       	push	r17
     c4a:	cf 93       	push	r28
     c4c:	df 93       	push	r29
     c4e:	e8 2f       	mov	r30, r24
     c50:	f0 e0       	ldi	r31, 0x00	; 0
     c52:	ef 01       	movw	r28, r30
     c54:	cc 0f       	add	r28, r28
     c56:	dd 1f       	adc	r29, r29
     c58:	fe 01       	movw	r30, r28
     c5a:	e0 50       	subi	r30, 0x00	; 0
     c5c:	ff 4f       	sbci	r31, 0xFF	; 255
     c5e:	40 81       	ld	r20, Z
     c60:	51 81       	ldd	r21, Z+1	; 0x01
     c62:	41 15       	cp	r20, r1
     c64:	51 05       	cpc	r21, r1
     c66:	31 f5       	brne	.+76     	; 0xcb4 <line_check+0x6c>
     c68:	9b 01       	movw	r18, r22
     c6a:	25 51       	subi	r18, 0x15	; 21
     c6c:	31 09       	sbc	r19, r1
     c6e:	2b 31       	cpi	r18, 0x1B	; 27
     c70:	35 47       	sbci	r19, 0x75	; 117
     c72:	90 f4       	brcc	.+36     	; 0xc98 <line_check+0x50>
     c74:	18 2f       	mov	r17, r24
     c76:	71 83       	std	Z+1, r23	; 0x01
     c78:	60 83       	st	Z, r22
     c7a:	cb 01       	movw	r24, r22
     c7c:	0e 94 e7 05 	call	0xbce	; 0xbce <calculate_procent>
     c80:	fe 01       	movw	r30, r28
     c82:	e0 5f       	subi	r30, 0xF0	; 240
     c84:	fe 4f       	sbci	r31, 0xFE	; 254
     c86:	91 83       	std	Z+1, r25	; 0x01
     c88:	80 83       	st	Z, r24
     c8a:	81 e0       	ldi	r24, 0x01	; 1
     c8c:	90 e0       	ldi	r25, 0x00	; 0
     c8e:	01 c0       	rjmp	.+2      	; 0xc92 <line_check+0x4a>
     c90:	88 0f       	add	r24, r24
     c92:	1a 95       	dec	r17
     c94:	ea f7       	brpl	.-6      	; 0xc90 <line_check+0x48>
     c96:	71 c0       	rjmp	.+226    	; 0xd7a <line_check+0x132>
     c98:	21 e0       	ldi	r18, 0x01	; 1
     c9a:	30 e0       	ldi	r19, 0x00	; 0
     c9c:	a9 01       	movw	r20, r18
     c9e:	02 c0       	rjmp	.+4      	; 0xca4 <line_check+0x5c>
     ca0:	44 0f       	add	r20, r20
     ca2:	55 1f       	adc	r21, r21
     ca4:	8a 95       	dec	r24
     ca6:	e2 f7       	brpl	.-8      	; 0xca0 <line_check+0x58>
     ca8:	ca 01       	movw	r24, r20
     caa:	65 31       	cpi	r22, 0x15	; 21
     cac:	71 05       	cpc	r23, r1
     cae:	08 f0       	brcs	.+2      	; 0xcb2 <line_check+0x6a>
     cb0:	46 c0       	rjmp	.+140    	; 0xd3e <line_check+0xf6>
     cb2:	1b c0       	rjmp	.+54     	; 0xcea <line_check+0xa2>
     cb4:	fe 01       	movw	r30, r28
     cb6:	e0 5f       	subi	r30, 0xF0	; 240
     cb8:	fe 4f       	sbci	r31, 0xFE	; 254
     cba:	20 81       	ld	r18, Z
     cbc:	31 81       	ldd	r19, Z+1	; 0x01
     cbe:	fa 01       	movw	r30, r20
     cc0:	e2 1b       	sub	r30, r18
     cc2:	f3 0b       	sbc	r31, r19
     cc4:	6e 17       	cp	r22, r30
     cc6:	7f 07       	cpc	r23, r31
     cc8:	20 f0       	brcs	.+8      	; 0xcd2 <line_check+0x8a>
     cca:	64 31       	cpi	r22, 0x14	; 20
     ccc:	71 05       	cpc	r23, r1
     cce:	20 f0       	brcs	.+8      	; 0xcd8 <line_check+0x90>
     cd0:	21 c0       	rjmp	.+66     	; 0xd14 <line_check+0xcc>
     cd2:	64 31       	cpi	r22, 0x14	; 20
     cd4:	71 05       	cpc	r23, r1
     cd6:	78 f4       	brcc	.+30     	; 0xcf6 <line_check+0xae>
     cd8:	21 e0       	ldi	r18, 0x01	; 1
     cda:	30 e0       	ldi	r19, 0x00	; 0
     cdc:	a9 01       	movw	r20, r18
     cde:	02 c0       	rjmp	.+4      	; 0xce4 <line_check+0x9c>
     ce0:	44 0f       	add	r20, r20
     ce2:	55 1f       	adc	r21, r21
     ce4:	8a 95       	dec	r24
     ce6:	e2 f7       	brpl	.-8      	; 0xce0 <line_check+0x98>
     ce8:	ca 01       	movw	r24, r20
     cea:	90 91 fc 00 	lds	r25, 0x00FC	; 0x8000fc <StateLineStr+0x4>
     cee:	89 2b       	or	r24, r25
     cf0:	80 93 fc 00 	sts	0x00FC, r24	; 0x8000fc <StateLineStr+0x4>
     cf4:	47 c0       	rjmp	.+142    	; 0xd84 <line_check+0x13c>
     cf6:	21 e0       	ldi	r18, 0x01	; 1
     cf8:	30 e0       	ldi	r19, 0x00	; 0
     cfa:	a9 01       	movw	r20, r18
     cfc:	02 c0       	rjmp	.+4      	; 0xd02 <line_check+0xba>
     cfe:	44 0f       	add	r20, r20
     d00:	55 1f       	adc	r21, r21
     d02:	8a 95       	dec	r24
     d04:	e2 f7       	brpl	.-8      	; 0xcfe <line_check+0xb6>
     d06:	ca 01       	movw	r24, r20
     d08:	90 91 fb 00 	lds	r25, 0x00FB	; 0x8000fb <StateLineStr+0x3>
     d0c:	89 2b       	or	r24, r25
     d0e:	80 93 fb 00 	sts	0x00FB, r24	; 0x8000fb <StateLineStr+0x3>
     d12:	38 c0       	rjmp	.+112    	; 0xd84 <line_check+0x13c>
     d14:	24 0f       	add	r18, r20
     d16:	35 1f       	adc	r19, r21
     d18:	26 17       	cp	r18, r22
     d1a:	37 07       	cpc	r19, r23
     d1c:	20 f0       	brcs	.+8      	; 0xd26 <line_check+0xde>
     d1e:	61 33       	cpi	r22, 0x31	; 49
     d20:	75 47       	sbci	r23, 0x75	; 117
     d22:	20 f4       	brcc	.+8      	; 0xd2c <line_check+0xe4>
     d24:	21 c0       	rjmp	.+66     	; 0xd68 <line_check+0x120>
     d26:	61 33       	cpi	r22, 0x31	; 49
     d28:	75 47       	sbci	r23, 0x75	; 117
     d2a:	78 f0       	brcs	.+30     	; 0xd4a <line_check+0x102>
     d2c:	21 e0       	ldi	r18, 0x01	; 1
     d2e:	30 e0       	ldi	r19, 0x00	; 0
     d30:	a9 01       	movw	r20, r18
     d32:	02 c0       	rjmp	.+4      	; 0xd38 <line_check+0xf0>
     d34:	44 0f       	add	r20, r20
     d36:	55 1f       	adc	r21, r21
     d38:	8a 95       	dec	r24
     d3a:	e2 f7       	brpl	.-8      	; 0xd34 <line_check+0xec>
     d3c:	ca 01       	movw	r24, r20
     d3e:	90 91 f8 00 	lds	r25, 0x00F8	; 0x8000f8 <StateLineStr>
     d42:	89 2b       	or	r24, r25
     d44:	80 93 f8 00 	sts	0x00F8, r24	; 0x8000f8 <StateLineStr>
     d48:	1d c0       	rjmp	.+58     	; 0xd84 <line_check+0x13c>
     d4a:	21 e0       	ldi	r18, 0x01	; 1
     d4c:	30 e0       	ldi	r19, 0x00	; 0
     d4e:	a9 01       	movw	r20, r18
     d50:	02 c0       	rjmp	.+4      	; 0xd56 <line_check+0x10e>
     d52:	44 0f       	add	r20, r20
     d54:	55 1f       	adc	r21, r21
     d56:	8a 95       	dec	r24
     d58:	e2 f7       	brpl	.-8      	; 0xd52 <line_check+0x10a>
     d5a:	ca 01       	movw	r24, r20
     d5c:	90 91 f9 00 	lds	r25, 0x00F9	; 0x8000f9 <StateLineStr+0x1>
     d60:	89 2b       	or	r24, r25
     d62:	80 93 f9 00 	sts	0x00F9, r24	; 0x8000f9 <StateLineStr+0x1>
     d66:	0e c0       	rjmp	.+28     	; 0xd84 <line_check+0x13c>
     d68:	21 e0       	ldi	r18, 0x01	; 1
     d6a:	30 e0       	ldi	r19, 0x00	; 0
     d6c:	a9 01       	movw	r20, r18
     d6e:	02 c0       	rjmp	.+4      	; 0xd74 <line_check+0x12c>
     d70:	44 0f       	add	r20, r20
     d72:	55 1f       	adc	r21, r21
     d74:	8a 95       	dec	r24
     d76:	e2 f7       	brpl	.-8      	; 0xd70 <line_check+0x128>
     d78:	ca 01       	movw	r24, r20
     d7a:	90 91 fa 00 	lds	r25, 0x00FA	; 0x8000fa <StateLineStr+0x2>
     d7e:	89 2b       	or	r24, r25
     d80:	80 93 fa 00 	sts	0x00FA, r24	; 0x8000fa <StateLineStr+0x2>
     d84:	df 91       	pop	r29
     d86:	cf 91       	pop	r28
     d88:	1f 91       	pop	r17
     d8a:	08 95       	ret

00000d8c <calibration_adc_for_line_checker>:
     d8c:	cf 92       	push	r12
     d8e:	df 92       	push	r13
     d90:	ef 92       	push	r14
     d92:	ff 92       	push	r15
     d94:	0f 93       	push	r16
     d96:	1f 93       	push	r17
     d98:	cf 93       	push	r28
     d9a:	c8 e0       	ldi	r28, 0x08	; 8
     d9c:	c1 2c       	mov	r12, r1
     d9e:	d1 2c       	mov	r13, r1
     da0:	76 01       	movw	r14, r12
     da2:	87 e0       	ldi	r24, 0x07	; 7
     da4:	0e 94 61 04 	call	0x8c2	; 0x8c2 <get_adc_measure>
     da8:	c8 0e       	add	r12, r24
     daa:	d9 1e       	adc	r13, r25
     dac:	e1 1c       	adc	r14, r1
     dae:	f1 1c       	adc	r15, r1
     db0:	c1 50       	subi	r28, 0x01	; 1
     db2:	b9 f7       	brne	.-18     	; 0xda2 <calibration_adc_for_line_checker+0x16>
     db4:	a7 01       	movw	r20, r14
     db6:	96 01       	movw	r18, r12
     db8:	83 e0       	ldi	r24, 0x03	; 3
     dba:	56 95       	lsr	r21
     dbc:	47 95       	ror	r20
     dbe:	37 95       	ror	r19
     dc0:	27 95       	ror	r18
     dc2:	8a 95       	dec	r24
     dc4:	d1 f7       	brne	.-12     	; 0xdba <calibration_adc_for_line_checker+0x2e>
     dc6:	cc 24       	eor	r12, r12
     dc8:	ca 94       	dec	r12
     dca:	9f e0       	ldi	r25, 0x0F	; 15
     dcc:	d9 2e       	mov	r13, r25
     dce:	e1 2c       	mov	r14, r1
     dd0:	f1 2c       	mov	r15, r1
     dd2:	c2 1a       	sub	r12, r18
     dd4:	d3 0a       	sbc	r13, r19
     dd6:	e4 0a       	sbc	r14, r20
     dd8:	f5 0a       	sbc	r15, r21
     dda:	a0 e1       	ldi	r26, 0x10	; 16
     ddc:	b7 e2       	ldi	r27, 0x27	; 39
     dde:	0e 94 1a 14 	call	0x2834	; 0x2834 <__muluhisi3>
     de2:	97 01       	movw	r18, r14
     de4:	86 01       	movw	r16, r12
     de6:	36 95       	lsr	r19
     de8:	27 95       	ror	r18
     dea:	17 95       	ror	r17
     dec:	07 95       	ror	r16
     dee:	60 0f       	add	r22, r16
     df0:	71 1f       	adc	r23, r17
     df2:	82 1f       	adc	r24, r18
     df4:	93 1f       	adc	r25, r19
     df6:	a7 01       	movw	r20, r14
     df8:	96 01       	movw	r18, r12
     dfa:	0e 94 e3 13 	call	0x27c6	; 0x27c6 <__udivmodsi4>
     dfe:	60 e8       	ldi	r22, 0x80	; 128
     e00:	70 ef       	ldi	r23, 0xF0	; 240
     e02:	8a ef       	ldi	r24, 0xFA	; 250
     e04:	92 e0       	ldi	r25, 0x02	; 2
     e06:	0e 94 e3 13 	call	0x27c6	; 0x27c6 <__udivmodsi4>
     e0a:	30 93 6d 00 	sts	0x006D, r19	; 0x80006d <CalibrCoeff+0x1>
     e0e:	20 93 6c 00 	sts	0x006C, r18	; 0x80006c <CalibrCoeff>
     e12:	cf 91       	pop	r28
     e14:	1f 91       	pop	r17
     e16:	0f 91       	pop	r16
     e18:	ff 90       	pop	r15
     e1a:	ef 90       	pop	r14
     e1c:	df 90       	pop	r13
     e1e:	cf 90       	pop	r12
     e20:	08 95       	ret

00000e22 <set_lines_to_control>:
     e22:	e8 ef       	ldi	r30, 0xF8	; 248
     e24:	f0 e0       	ldi	r31, 0x00	; 0
     e26:	95 81       	ldd	r25, Z+5	; 0x05
     e28:	89 27       	eor	r24, r25
     e2a:	85 83       	std	Z+5, r24	; 0x05
     e2c:	08 95       	ret

00000e2e <get_lines_to_control>:
     e2e:	80 91 fd 00 	lds	r24, 0x00FD	; 0x8000fd <StateLineStr+0x5>
     e32:	08 95       	ret

00000e34 <get_blocked_speaker_line>:
     e34:	80 91 fc 00 	lds	r24, 0x00FC	; 0x8000fc <StateLineStr+0x4>
     e38:	80 95       	com	r24
     e3a:	08 95       	ret

00000e3c <get_alarms_lines>:
     e3c:	e8 ef       	ldi	r30, 0xF8	; 248
     e3e:	f0 e0       	ldi	r31, 0x00	; 0
     e40:	90 81       	ld	r25, Z
     e42:	83 81       	ldd	r24, Z+3	; 0x03
     e44:	89 2b       	or	r24, r25
     e46:	91 81       	ldd	r25, Z+1	; 0x01
     e48:	89 2b       	or	r24, r25
     e4a:	94 81       	ldd	r25, Z+4	; 0x04
     e4c:	89 2b       	or	r24, r25
     e4e:	08 95       	ret

00000e50 <measure_resistence_all_line_after_power_on>:
     e50:	bf 92       	push	r11
     e52:	cf 92       	push	r12
     e54:	df 92       	push	r13
     e56:	ef 92       	push	r14
     e58:	ff 92       	push	r15
     e5a:	0f 93       	push	r16
     e5c:	1f 93       	push	r17
     e5e:	cf 93       	push	r28
     e60:	df 93       	push	r29
     e62:	90 91 6b 00 	lds	r25, 0x006B	; 0x80006b <LineChackerFlagReg>
     e66:	91 60       	ori	r25, 0x01	; 1
     e68:	90 93 6b 00 	sts	0x006B, r25	; 0x80006b <LineChackerFlagReg>
     e6c:	80 93 6a 00 	sts	0x006A, r24	; 0x80006a <LevelLC>
     e70:	8f ef       	ldi	r24, 0xFF	; 255
     e72:	0e 94 32 05 	call	0xa64	; 0xa64 <clear_line_status>
     e76:	00 e0       	ldi	r16, 0x00	; 0
     e78:	11 e0       	ldi	r17, 0x01	; 1
     e7a:	80 e1       	ldi	r24, 0x10	; 16
     e7c:	e8 2e       	mov	r14, r24
     e7e:	81 e0       	ldi	r24, 0x01	; 1
     e80:	f8 2e       	mov	r15, r24
     e82:	c0 e0       	ldi	r28, 0x00	; 0
     e84:	d0 e0       	ldi	r29, 0x00	; 0
     e86:	cc 24       	eor	r12, r12
     e88:	c3 94       	inc	r12
     e8a:	d1 2c       	mov	r13, r1
     e8c:	f8 01       	movw	r30, r16
     e8e:	11 82       	std	Z+1, r1	; 0x01
     e90:	10 82       	st	Z, r1
     e92:	64 ef       	ldi	r22, 0xF4	; 244
     e94:	71 e0       	ldi	r23, 0x01	; 1
     e96:	8c 2f       	mov	r24, r28
     e98:	0e 94 45 05 	call	0xa8a	; 0xa8a <measure_resistence_one_line>
     e9c:	9c 01       	movw	r18, r24
     e9e:	25 51       	subi	r18, 0x15	; 21
     ea0:	31 09       	sbc	r19, r1
     ea2:	2b 31       	cpi	r18, 0x1B	; 27
     ea4:	35 47       	sbci	r19, 0x75	; 117
     ea6:	a0 f4       	brcc	.+40     	; 0xed0 <measure_resistence_all_line_after_power_on+0x80>
     ea8:	f8 01       	movw	r30, r16
     eaa:	91 83       	std	Z+1, r25	; 0x01
     eac:	80 83       	st	Z, r24
     eae:	0e 94 e7 05 	call	0xbce	; 0xbce <calculate_procent>
     eb2:	f7 01       	movw	r30, r14
     eb4:	91 83       	std	Z+1, r25	; 0x01
     eb6:	80 83       	st	Z, r24
     eb8:	20 91 fa 00 	lds	r18, 0x00FA	; 0x8000fa <StateLineStr+0x2>
     ebc:	c6 01       	movw	r24, r12
     ebe:	0c 2e       	mov	r0, r28
     ec0:	01 c0       	rjmp	.+2      	; 0xec4 <measure_resistence_all_line_after_power_on+0x74>
     ec2:	88 0f       	add	r24, r24
     ec4:	0a 94       	dec	r0
     ec6:	ea f7       	brpl	.-6      	; 0xec2 <measure_resistence_all_line_after_power_on+0x72>
     ec8:	82 2b       	or	r24, r18
     eca:	80 93 fa 00 	sts	0x00FA, r24	; 0x8000fa <StateLineStr+0x2>
     ece:	19 c0       	rjmp	.+50     	; 0xf02 <measure_resistence_all_line_after_power_on+0xb2>
     ed0:	45 97       	sbiw	r24, 0x15	; 21
     ed2:	60 f4       	brcc	.+24     	; 0xeec <measure_resistence_all_line_after_power_on+0x9c>
     ed4:	c6 01       	movw	r24, r12
     ed6:	0c 2e       	mov	r0, r28
     ed8:	01 c0       	rjmp	.+2      	; 0xedc <measure_resistence_all_line_after_power_on+0x8c>
     eda:	88 0f       	add	r24, r24
     edc:	0a 94       	dec	r0
     ede:	ea f7       	brpl	.-6      	; 0xeda <measure_resistence_all_line_after_power_on+0x8a>
     ee0:	90 91 fc 00 	lds	r25, 0x00FC	; 0x8000fc <StateLineStr+0x4>
     ee4:	89 2b       	or	r24, r25
     ee6:	80 93 fc 00 	sts	0x00FC, r24	; 0x8000fc <StateLineStr+0x4>
     eea:	0b c0       	rjmp	.+22     	; 0xf02 <measure_resistence_all_line_after_power_on+0xb2>
     eec:	c6 01       	movw	r24, r12
     eee:	0c 2e       	mov	r0, r28
     ef0:	01 c0       	rjmp	.+2      	; 0xef4 <measure_resistence_all_line_after_power_on+0xa4>
     ef2:	88 0f       	add	r24, r24
     ef4:	0a 94       	dec	r0
     ef6:	ea f7       	brpl	.-6      	; 0xef2 <measure_resistence_all_line_after_power_on+0xa2>
     ef8:	90 91 f8 00 	lds	r25, 0x00F8	; 0x8000f8 <StateLineStr>
     efc:	89 2b       	or	r24, r25
     efe:	80 93 f8 00 	sts	0x00F8, r24	; 0x8000f8 <StateLineStr>
     f02:	21 96       	adiw	r28, 0x01	; 1
     f04:	0e 5f       	subi	r16, 0xFE	; 254
     f06:	1f 4f       	sbci	r17, 0xFF	; 255
     f08:	32 e0       	ldi	r19, 0x02	; 2
     f0a:	e3 0e       	add	r14, r19
     f0c:	f1 1c       	adc	r15, r1
     f0e:	c8 30       	cpi	r28, 0x08	; 8
     f10:	d1 05       	cpc	r29, r1
     f12:	09 f0       	breq	.+2      	; 0xf16 <measure_resistence_all_line_after_power_on+0xc6>
     f14:	bb cf       	rjmp	.-138    	; 0xe8c <measure_resistence_all_line_after_power_on+0x3c>
     f16:	80 91 6b 00 	lds	r24, 0x006B	; 0x80006b <LineChackerFlagReg>
     f1a:	8e 7f       	andi	r24, 0xFE	; 254
     f1c:	80 93 6b 00 	sts	0x006B, r24	; 0x80006b <LineChackerFlagReg>
     f20:	80 e0       	ldi	r24, 0x00	; 0
     f22:	df 91       	pop	r29
     f24:	cf 91       	pop	r28
     f26:	1f 91       	pop	r17
     f28:	0f 91       	pop	r16
     f2a:	ff 90       	pop	r15
     f2c:	ef 90       	pop	r14
     f2e:	df 90       	pop	r13
     f30:	cf 90       	pop	r12
     f32:	bf 90       	pop	r11
     f34:	0c 94 47 0b 	jmp	0x168e	; 0x168e <set_line_checker_led_green>

00000f38 <measure_resistence_line_after_timeout>:
     f38:	cf 93       	push	r28
     f3a:	df 93       	push	r29
     f3c:	80 91 6b 00 	lds	r24, 0x006B	; 0x80006b <LineChackerFlagReg>
     f40:	81 60       	ori	r24, 0x01	; 1
     f42:	80 93 6b 00 	sts	0x006B, r24	; 0x80006b <LineChackerFlagReg>
     f46:	80 91 fd 00 	lds	r24, 0x00FD	; 0x8000fd <StateLineStr+0x5>
     f4a:	0e 94 32 05 	call	0xa64	; 0xa64 <clear_line_status>
     f4e:	80 e0       	ldi	r24, 0x00	; 0
     f50:	0e 94 47 0b 	call	0x168e	; 0x168e <set_line_checker_led_green>
     f54:	80 e0       	ldi	r24, 0x00	; 0
     f56:	0e 94 92 0b 	call	0x1724	; 0x1724 <set_line_checker_led_red>
     f5a:	c0 e0       	ldi	r28, 0x00	; 0
     f5c:	d0 e0       	ldi	r29, 0x00	; 0
     f5e:	80 91 fd 00 	lds	r24, 0x00FD	; 0x8000fd <StateLineStr+0x5>
     f62:	90 e0       	ldi	r25, 0x00	; 0
     f64:	0c 2e       	mov	r0, r28
     f66:	02 c0       	rjmp	.+4      	; 0xf6c <measure_resistence_line_after_timeout+0x34>
     f68:	95 95       	asr	r25
     f6a:	87 95       	ror	r24
     f6c:	0a 94       	dec	r0
     f6e:	e2 f7       	brpl	.-8      	; 0xf68 <measure_resistence_line_after_timeout+0x30>
     f70:	80 ff       	sbrs	r24, 0
     f72:	09 c0       	rjmp	.+18     	; 0xf86 <measure_resistence_line_after_timeout+0x4e>
     f74:	68 ee       	ldi	r22, 0xE8	; 232
     f76:	73 e0       	ldi	r23, 0x03	; 3
     f78:	8c 2f       	mov	r24, r28
     f7a:	0e 94 45 05 	call	0xa8a	; 0xa8a <measure_resistence_one_line>
     f7e:	bc 01       	movw	r22, r24
     f80:	8c 2f       	mov	r24, r28
     f82:	0e 94 24 06 	call	0xc48	; 0xc48 <line_check>
     f86:	21 96       	adiw	r28, 0x01	; 1
     f88:	c8 30       	cpi	r28, 0x08	; 8
     f8a:	d1 05       	cpc	r29, r1
     f8c:	41 f7       	brne	.-48     	; 0xf5e <measure_resistence_line_after_timeout+0x26>
     f8e:	80 91 6b 00 	lds	r24, 0x006B	; 0x80006b <LineChackerFlagReg>
     f92:	8e 7f       	andi	r24, 0xFE	; 254
     f94:	80 93 6b 00 	sts	0x006B, r24	; 0x80006b <LineChackerFlagReg>
     f98:	df 91       	pop	r29
     f9a:	cf 91       	pop	r28
     f9c:	08 95       	ret

00000f9e <one_line_check>:
     f9e:	cf 93       	push	r28
     fa0:	88 23       	and	r24, r24
     fa2:	09 f4       	brne	.+2      	; 0xfa6 <one_line_check+0x8>
     fa4:	41 c0       	rjmp	.+130    	; 0x1028 <one_line_check+0x8a>
     fa6:	90 91 6b 00 	lds	r25, 0x006B	; 0x80006b <LineChackerFlagReg>
     faa:	91 60       	ori	r25, 0x01	; 1
     fac:	90 93 6b 00 	sts	0x006B, r25	; 0x80006b <LineChackerFlagReg>
     fb0:	20 e0       	ldi	r18, 0x00	; 0
     fb2:	30 e0       	ldi	r19, 0x00	; 0
     fb4:	90 e0       	ldi	r25, 0x00	; 0
     fb6:	c2 2f       	mov	r28, r18
     fb8:	ac 01       	movw	r20, r24
     fba:	02 2e       	mov	r0, r18
     fbc:	02 c0       	rjmp	.+4      	; 0xfc2 <one_line_check+0x24>
     fbe:	55 95       	asr	r21
     fc0:	47 95       	ror	r20
     fc2:	0a 94       	dec	r0
     fc4:	e2 f7       	brpl	.-8      	; 0xfbe <one_line_check+0x20>
     fc6:	40 fd       	sbrc	r20, 0
     fc8:	06 c0       	rjmp	.+12     	; 0xfd6 <one_line_check+0x38>
     fca:	2f 5f       	subi	r18, 0xFF	; 255
     fcc:	3f 4f       	sbci	r19, 0xFF	; 255
     fce:	28 30       	cpi	r18, 0x08	; 8
     fd0:	31 05       	cpc	r19, r1
     fd2:	89 f7       	brne	.-30     	; 0xfb6 <one_line_check+0x18>
     fd4:	c8 e0       	ldi	r28, 0x08	; 8
     fd6:	81 e0       	ldi	r24, 0x01	; 1
     fd8:	0c 2e       	mov	r0, r28
     fda:	01 c0       	rjmp	.+2      	; 0xfde <one_line_check+0x40>
     fdc:	88 0f       	add	r24, r24
     fde:	0a 94       	dec	r0
     fe0:	ea f7       	brpl	.-6      	; 0xfdc <one_line_check+0x3e>
     fe2:	0e 94 32 05 	call	0xa64	; 0xa64 <clear_line_status>
     fe6:	80 e0       	ldi	r24, 0x00	; 0
     fe8:	0e 94 47 0b 	call	0x168e	; 0x168e <set_line_checker_led_green>
     fec:	80 e0       	ldi	r24, 0x00	; 0
     fee:	0e 94 92 0b 	call	0x1724	; 0x1724 <set_line_checker_led_red>
     ff2:	68 ee       	ldi	r22, 0xE8	; 232
     ff4:	73 e0       	ldi	r23, 0x03	; 3
     ff6:	8c 2f       	mov	r24, r28
     ff8:	0e 94 45 05 	call	0xa8a	; 0xa8a <measure_resistence_one_line>
     ffc:	bc 01       	movw	r22, r24
     ffe:	8c 2f       	mov	r24, r28
    1000:	0e 94 24 06 	call	0xc48	; 0xc48 <line_check>
    1004:	80 91 26 01 	lds	r24, 0x0126	; 0x800126 <ButtonSostStr+0x1>
    1008:	87 7f       	andi	r24, 0xF7	; 247
    100a:	80 93 26 01 	sts	0x0126, r24	; 0x800126 <ButtonSostStr+0x1>
    100e:	80 91 fc 00 	lds	r24, 0x00FC	; 0x8000fc <StateLineStr+0x4>
    1012:	80 95       	com	r24
    1014:	90 91 28 01 	lds	r25, 0x0128	; 0x800128 <ButtonSostStr+0x3>
    1018:	89 23       	and	r24, r25
    101a:	80 93 28 01 	sts	0x0128, r24	; 0x800128 <ButtonSostStr+0x3>
    101e:	80 91 6b 00 	lds	r24, 0x006B	; 0x80006b <LineChackerFlagReg>
    1022:	8e 7f       	andi	r24, 0xFE	; 254
    1024:	80 93 6b 00 	sts	0x006B, r24	; 0x80006b <LineChackerFlagReg>
    1028:	cf 91       	pop	r28
    102a:	08 95       	ret

0000102c <start_short_indication>:
    102c:	f8 94       	cli
    102e:	90 91 8b 00 	lds	r25, 0x008B	; 0x80008b <Timer0FlagReg>
    1032:	98 60       	ori	r25, 0x08	; 8
    1034:	90 93 8b 00 	sts	0x008B, r25	; 0x80008b <Timer0FlagReg>
    1038:	80 93 fe 00 	sts	0x00FE, r24	; 0x8000fe <StateLineStr+0x6>
    103c:	90 91 f8 00 	lds	r25, 0x00F8	; 0x8000f8 <StateLineStr>
    1040:	98 23       	and	r25, r24
    1042:	11 f0       	breq	.+4      	; 0x1048 <start_short_indication+0x1c>
    1044:	81 ea       	ldi	r24, 0xA1	; 161
    1046:	11 c0       	rjmp	.+34     	; 0x106a <start_short_indication+0x3e>
    1048:	90 91 f9 00 	lds	r25, 0x00F9	; 0x8000f9 <StateLineStr+0x1>
    104c:	98 23       	and	r25, r24
    104e:	11 f0       	breq	.+4      	; 0x1054 <start_short_indication+0x28>
    1050:	82 ea       	ldi	r24, 0xA2	; 162
    1052:	0b c0       	rjmp	.+22     	; 0x106a <start_short_indication+0x3e>
    1054:	90 91 fb 00 	lds	r25, 0x00FB	; 0x8000fb <StateLineStr+0x3>
    1058:	98 23       	and	r25, r24
    105a:	11 f0       	breq	.+4      	; 0x1060 <start_short_indication+0x34>
    105c:	83 ea       	ldi	r24, 0xA3	; 163
    105e:	05 c0       	rjmp	.+10     	; 0x106a <start_short_indication+0x3e>
    1060:	90 91 fc 00 	lds	r25, 0x00FC	; 0x8000fc <StateLineStr+0x4>
    1064:	89 23       	and	r24, r25
    1066:	21 f0       	breq	.+8      	; 0x1070 <start_short_indication+0x44>
    1068:	84 ea       	ldi	r24, 0xA4	; 164
    106a:	80 93 ff 00 	sts	0x00FF, r24	; 0x8000ff <StateLineStr+0x7>
    106e:	78 94       	sei
    1070:	08 95       	ret

00001072 <resistence_all_line_indicate>:
    1072:	cf 93       	push	r28
    1074:	80 91 6b 00 	lds	r24, 0x006B	; 0x80006b <LineChackerFlagReg>
    1078:	80 fd       	sbrc	r24, 0
    107a:	46 c0       	rjmp	.+140    	; 0x1108 <resistence_all_line_indicate+0x96>
    107c:	10 92 88 00 	sts	0x0088, r1	; 0x800088 <Timer1FastBlinkReg>
    1080:	80 91 8b 00 	lds	r24, 0x008B	; 0x80008b <Timer0FlagReg>
    1084:	83 ff       	sbrs	r24, 3
    1086:	22 c0       	rjmp	.+68     	; 0x10cc <resistence_all_line_indicate+0x5a>
    1088:	80 91 ff 00 	lds	r24, 0x00FF	; 0x8000ff <StateLineStr+0x7>
    108c:	84 3a       	cpi	r24, 0xA4	; 164
    108e:	51 f0       	breq	.+20     	; 0x10a4 <resistence_all_line_indicate+0x32>
    1090:	90 91 89 00 	lds	r25, 0x0089	; 0x800089 <Timer1BlinkReg>
    1094:	99 23       	and	r25, r25
    1096:	21 f0       	breq	.+8      	; 0x10a0 <resistence_all_line_indicate+0x2e>
    1098:	90 e0       	ldi	r25, 0x00	; 0
    109a:	0e 94 ec 0a 	call	0x15d8	; 0x15d8 <display_set>
    109e:	02 c0       	rjmp	.+4      	; 0x10a4 <resistence_all_line_indicate+0x32>
    10a0:	0e 94 1e 0b 	call	0x163c	; 0x163c <display_off>
    10a4:	80 91 89 00 	lds	r24, 0x0089	; 0x800089 <Timer1BlinkReg>
    10a8:	90 91 f8 00 	lds	r25, 0x00F8	; 0x8000f8 <StateLineStr>
    10ac:	20 91 fb 00 	lds	r18, 0x00FB	; 0x8000fb <StateLineStr+0x3>
    10b0:	29 2b       	or	r18, r25
    10b2:	30 91 f9 00 	lds	r19, 0x00F9	; 0x8000f9 <StateLineStr+0x1>
    10b6:	23 2b       	or	r18, r19
    10b8:	90 91 fc 00 	lds	r25, 0x00FC	; 0x8000fc <StateLineStr+0x4>
    10bc:	98 23       	and	r25, r24
    10be:	82 2f       	mov	r24, r18
    10c0:	89 2b       	or	r24, r25
    10c2:	c0 91 fe 00 	lds	r28, 0x00FE	; 0x8000fe <StateLineStr+0x6>
    10c6:	c8 23       	and	r28, r24
    10c8:	8c 2f       	mov	r24, r28
    10ca:	1a c0       	rjmp	.+52     	; 0x1100 <resistence_all_line_indicate+0x8e>
    10cc:	c0 91 fd 00 	lds	r28, 0x00FD	; 0x8000fd <StateLineStr+0x5>
    10d0:	90 91 f8 00 	lds	r25, 0x00F8	; 0x8000f8 <StateLineStr>
    10d4:	80 91 fb 00 	lds	r24, 0x00FB	; 0x8000fb <StateLineStr+0x3>
    10d8:	98 2b       	or	r25, r24
    10da:	20 91 f9 00 	lds	r18, 0x00F9	; 0x8000f9 <StateLineStr+0x1>
    10de:	92 2b       	or	r25, r18
    10e0:	9c 23       	and	r25, r28
    10e2:	80 91 fc 00 	lds	r24, 0x00FC	; 0x8000fc <StateLineStr+0x4>
    10e6:	8c 23       	and	r24, r28
    10e8:	40 91 89 00 	lds	r20, 0x0089	; 0x800089 <Timer1BlinkReg>
    10ec:	20 91 89 00 	lds	r18, 0x0089	; 0x800089 <Timer1BlinkReg>
    10f0:	30 91 fa 00 	lds	r19, 0x00FA	; 0x8000fa <StateLineStr+0x2>
    10f4:	c3 23       	and	r28, r19
    10f6:	c9 2b       	or	r28, r25
    10f8:	28 23       	and	r18, r24
    10fa:	c2 27       	eor	r28, r18
    10fc:	84 23       	and	r24, r20
    10fe:	89 27       	eor	r24, r25
    1100:	0e 94 92 0b 	call	0x1724	; 0x1724 <set_line_checker_led_red>
    1104:	8c 2f       	mov	r24, r28
    1106:	05 c0       	rjmp	.+10     	; 0x1112 <resistence_all_line_indicate+0xa0>
    1108:	80 91 88 00 	lds	r24, 0x0088	; 0x800088 <Timer1FastBlinkReg>
    110c:	82 70       	andi	r24, 0x02	; 2
    110e:	0e 94 70 09 	call	0x12e0	; 0x12e0 <get_relay_state>
    1112:	cf 91       	pop	r28
    1114:	0c 94 47 0b 	jmp	0x168e	; 0x168e <set_line_checker_led_green>

00001118 <eep_write_byte>:
    1118:	e1 99       	sbic	0x1c, 1	; 28
    111a:	fe cf       	rjmp	.-4      	; 0x1118 <eep_write_byte>
    111c:	70 e0       	ldi	r23, 0x00	; 0
    111e:	7f bb       	out	0x1f, r23	; 31
    1120:	6e bb       	out	0x1e, r22	; 30
    1122:	8d bb       	out	0x1d, r24	; 29
    1124:	f8 94       	cli
    1126:	e2 9a       	sbi	0x1c, 2	; 28
    1128:	e1 9a       	sbi	0x1c, 1	; 28
    112a:	78 94       	sei
    112c:	08 95       	ret

0000112e <eep_read_byte>:
    112e:	e1 99       	sbic	0x1c, 1	; 28
    1130:	fe cf       	rjmp	.-4      	; 0x112e <eep_read_byte>
    1132:	f8 94       	cli
    1134:	90 e0       	ldi	r25, 0x00	; 0
    1136:	9f bb       	out	0x1f, r25	; 31
    1138:	8e bb       	out	0x1e, r24	; 30
    113a:	e0 9a       	sbi	0x1c, 0	; 28
    113c:	78 94       	sei
    113e:	8d b3       	in	r24, 0x1d	; 29
    1140:	08 95       	ret

00001142 <eep_write_configuration>:
    1142:	ef 92       	push	r14
    1144:	ff 92       	push	r15
    1146:	0f 93       	push	r16
    1148:	1f 93       	push	r17
    114a:	cf 93       	push	r28
    114c:	df 93       	push	r29
    114e:	7c 01       	movw	r14, r24
    1150:	d5 e0       	ldi	r29, 0x05	; 5
    1152:	87 01       	movw	r16, r14
    1154:	c0 e0       	ldi	r28, 0x00	; 0
    1156:	6c 2f       	mov	r22, r28
    1158:	6d 0f       	add	r22, r29
    115a:	f8 01       	movw	r30, r16
    115c:	81 91       	ld	r24, Z+
    115e:	8f 01       	movw	r16, r30
    1160:	0e 94 8c 08 	call	0x1118	; 0x1118 <eep_write_byte>
    1164:	cf 5f       	subi	r28, 0xFF	; 255
    1166:	c8 30       	cpi	r28, 0x08	; 8
    1168:	b1 f7       	brne	.-20     	; 0x1156 <eep_write_configuration+0x14>
    116a:	d8 5f       	subi	r29, 0xF8	; 248
    116c:	dd 31       	cpi	r29, 0x1D	; 29
    116e:	89 f7       	brne	.-30     	; 0x1152 <eep_write_configuration+0x10>
    1170:	df 91       	pop	r29
    1172:	cf 91       	pop	r28
    1174:	1f 91       	pop	r17
    1176:	0f 91       	pop	r16
    1178:	ff 90       	pop	r15
    117a:	ef 90       	pop	r14
    117c:	08 95       	ret

0000117e <eep_read_configuration>:
    117e:	8f 92       	push	r8
    1180:	9f 92       	push	r9
    1182:	af 92       	push	r10
    1184:	bf 92       	push	r11
    1186:	cf 92       	push	r12
    1188:	df 92       	push	r13
    118a:	ef 92       	push	r14
    118c:	ff 92       	push	r15
    118e:	0f 93       	push	r16
    1190:	1f 93       	push	r17
    1192:	cf 93       	push	r28
    1194:	df 93       	push	r29
    1196:	cd b7       	in	r28, 0x3d	; 61
    1198:	de b7       	in	r29, 0x3e	; 62
    119a:	68 97       	sbiw	r28, 0x18	; 24
    119c:	0f b6       	in	r0, 0x3f	; 63
    119e:	f8 94       	cli
    11a0:	de bf       	out	0x3e, r29	; 62
    11a2:	0f be       	out	0x3f, r0	; 63
    11a4:	cd bf       	out	0x3d, r28	; 61
    11a6:	4c 01       	movw	r8, r24
    11a8:	8e 01       	movw	r16, r28
    11aa:	0f 5f       	subi	r16, 0xFF	; 255
    11ac:	1f 4f       	sbci	r17, 0xFF	; 255
    11ae:	58 01       	movw	r10, r16
    11b0:	85 e0       	ldi	r24, 0x05	; 5
    11b2:	d8 2e       	mov	r13, r24
    11b4:	cd 2c       	mov	r12, r13
    11b6:	e1 2c       	mov	r14, r1
    11b8:	f1 2c       	mov	r15, r1
    11ba:	8c 2d       	mov	r24, r12
    11bc:	0e 94 97 08 	call	0x112e	; 0x112e <eep_read_byte>
    11c0:	f5 01       	movw	r30, r10
    11c2:	ee 0d       	add	r30, r14
    11c4:	ff 1d       	adc	r31, r15
    11c6:	80 83       	st	Z, r24
    11c8:	8f ef       	ldi	r24, 0xFF	; 255
    11ca:	e8 1a       	sub	r14, r24
    11cc:	f8 0a       	sbc	r15, r24
    11ce:	c3 94       	inc	r12
    11d0:	a8 e0       	ldi	r26, 0x08	; 8
    11d2:	ea 16       	cp	r14, r26
    11d4:	f1 04       	cpc	r15, r1
    11d6:	89 f7       	brne	.-30     	; 0x11ba <eep_read_configuration+0x3c>
    11d8:	b8 e0       	ldi	r27, 0x08	; 8
    11da:	db 0e       	add	r13, r27
    11dc:	88 e0       	ldi	r24, 0x08	; 8
    11de:	a8 0e       	add	r10, r24
    11e0:	b1 1c       	adc	r11, r1
    11e2:	ad e1       	ldi	r26, 0x1D	; 29
    11e4:	da 12       	cpse	r13, r26
    11e6:	e6 cf       	rjmp	.-52     	; 0x11b4 <eep_read_configuration+0x36>
    11e8:	f4 01       	movw	r30, r8
    11ea:	ae 01       	movw	r20, r28
    11ec:	47 5f       	subi	r20, 0xF7	; 247
    11ee:	5f 4f       	sbci	r21, 0xFF	; 255
    11f0:	b8 01       	movw	r22, r16
    11f2:	d8 01       	movw	r26, r16
    11f4:	2d 91       	ld	r18, X+
    11f6:	8d 01       	movw	r16, r26
    11f8:	1f 96       	adiw	r26, 0x0f	; 15
    11fa:	8c 91       	ld	r24, X
    11fc:	32 2f       	mov	r19, r18
    11fe:	38 2b       	or	r19, r24
    1200:	db 01       	movw	r26, r22
    1202:	18 96       	adiw	r26, 0x08	; 8
    1204:	9c 91       	ld	r25, X
    1206:	93 23       	and	r25, r19
    1208:	82 23       	and	r24, r18
    120a:	89 2b       	or	r24, r25
    120c:	81 93       	st	Z+, r24
    120e:	04 17       	cp	r16, r20
    1210:	15 07       	cpc	r17, r21
    1212:	71 f7       	brne	.-36     	; 0x11f0 <eep_read_configuration+0x72>
    1214:	68 96       	adiw	r28, 0x18	; 24
    1216:	0f b6       	in	r0, 0x3f	; 63
    1218:	f8 94       	cli
    121a:	de bf       	out	0x3e, r29	; 62
    121c:	0f be       	out	0x3f, r0	; 63
    121e:	cd bf       	out	0x3d, r28	; 61
    1220:	df 91       	pop	r29
    1222:	cf 91       	pop	r28
    1224:	1f 91       	pop	r17
    1226:	0f 91       	pop	r16
    1228:	ff 90       	pop	r15
    122a:	ef 90       	pop	r14
    122c:	df 90       	pop	r13
    122e:	cf 90       	pop	r12
    1230:	bf 90       	pop	r11
    1232:	af 90       	pop	r10
    1234:	9f 90       	pop	r9
    1236:	8f 90       	pop	r8
    1238:	08 95       	ret

0000123a <eep_write_set_lines_to_control>:
    123a:	cf 93       	push	r28
    123c:	c8 2f       	mov	r28, r24
    123e:	6f e1       	ldi	r22, 0x1F	; 31
    1240:	0e 94 8c 08 	call	0x1118	; 0x1118 <eep_write_byte>
    1244:	60 e2       	ldi	r22, 0x20	; 32
    1246:	8c 2f       	mov	r24, r28
    1248:	0e 94 8c 08 	call	0x1118	; 0x1118 <eep_write_byte>
    124c:	61 e2       	ldi	r22, 0x21	; 33
    124e:	8c 2f       	mov	r24, r28
    1250:	cf 91       	pop	r28
    1252:	0c 94 8c 08 	jmp	0x1118	; 0x1118 <eep_write_byte>

00001256 <eep_read_set_lines_to_control>:
    1256:	cf 93       	push	r28
    1258:	df 93       	push	r29
    125a:	8f e1       	ldi	r24, 0x1F	; 31
    125c:	0e 94 97 08 	call	0x112e	; 0x112e <eep_read_byte>
    1260:	d8 2f       	mov	r29, r24
    1262:	80 e2       	ldi	r24, 0x20	; 32
    1264:	0e 94 97 08 	call	0x112e	; 0x112e <eep_read_byte>
    1268:	c8 2f       	mov	r28, r24
    126a:	81 e2       	ldi	r24, 0x21	; 33
    126c:	0e 94 97 08 	call	0x112e	; 0x112e <eep_read_byte>
    1270:	9d 2f       	mov	r25, r29
    1272:	98 2b       	or	r25, r24
    1274:	c9 23       	and	r28, r25
    1276:	8d 23       	and	r24, r29
    1278:	8c 2b       	or	r24, r28
    127a:	df 91       	pop	r29
    127c:	cf 91       	pop	r28
    127e:	08 95       	ret

00001280 <relay_em_init>:
    1280:	b8 9a       	sbi	0x17, 0	; 23
    1282:	c0 9a       	sbi	0x18, 0	; 24
    1284:	b9 98       	cbi	0x17, 1	; 23
    1286:	c1 98       	cbi	0x18, 1	; 24
    1288:	ba 9a       	sbi	0x17, 2	; 23
    128a:	c2 98       	cbi	0x18, 2	; 24
    128c:	8e 9a       	sbi	0x11, 6	; 17
    128e:	96 98       	cbi	0x12, 6	; 18
    1290:	8f 98       	cbi	0x11, 7	; 17
    1292:	97 98       	cbi	0x12, 7	; 18
    1294:	d1 98       	cbi	0x1a, 1	; 26
    1296:	d9 98       	cbi	0x1b, 1	; 27
    1298:	0c 94 a0 0d 	jmp	0x1b40	; 0x1b40 <spi_init>

0000129c <set_relay>:
    129c:	cf 93       	push	r28
    129e:	c8 2f       	mov	r28, r24
    12a0:	61 30       	cpi	r22, 0x01	; 1
    12a2:	41 f4       	brne	.+16     	; 0x12b4 <set_relay+0x18>
    12a4:	0e 94 1a 07 	call	0xe34	; 0xe34 <get_blocked_speaker_line>
    12a8:	8c 23       	and	r24, r28
    12aa:	80 93 70 00 	sts	0x0070, r24	; 0x800070 <buf.2176+0x2>
    12ae:	80 93 73 00 	sts	0x0073, r24	; 0x800073 <SpeakerRelaySost>
    12b2:	0d c0       	rjmp	.+26     	; 0x12ce <set_relay+0x32>
    12b4:	62 30       	cpi	r22, 0x02	; 2
    12b6:	39 f0       	breq	.+14     	; 0x12c6 <set_relay+0x2a>
    12b8:	63 30       	cpi	r22, 0x03	; 3
    12ba:	49 f4       	brne	.+18     	; 0x12ce <set_relay+0x32>
    12bc:	80 93 6e 00 	sts	0x006E, r24	; 0x80006e <buf.2176>
    12c0:	80 93 71 00 	sts	0x0071, r24	; 0x800071 <SostDD4>
    12c4:	04 c0       	rjmp	.+8      	; 0x12ce <set_relay+0x32>
    12c6:	80 93 6f 00 	sts	0x006F, r24	; 0x80006f <buf.2176+0x1>
    12ca:	80 93 72 00 	sts	0x0072, r24	; 0x800072 <LineCheckerRelaySost>
    12ce:	6e e6       	ldi	r22, 0x6E	; 110
    12d0:	70 e0       	ldi	r23, 0x00	; 0
    12d2:	83 e0       	ldi	r24, 0x03	; 3
    12d4:	0e 94 ab 0d 	call	0x1b56	; 0x1b56 <spi_write_array>
    12d8:	80 93 74 00 	sts	0x0074, r24	; 0x800074 <EmergencyInputSost>
    12dc:	cf 91       	pop	r28
    12de:	08 95       	ret

000012e0 <get_relay_state>:
    12e0:	81 30       	cpi	r24, 0x01	; 1
    12e2:	19 f4       	brne	.+6      	; 0x12ea <get_relay_state+0xa>
    12e4:	80 91 73 00 	lds	r24, 0x0073	; 0x800073 <SpeakerRelaySost>
    12e8:	08 95       	ret
    12ea:	82 30       	cpi	r24, 0x02	; 2
    12ec:	19 f4       	brne	.+6      	; 0x12f4 <get_relay_state+0x14>
    12ee:	80 91 72 00 	lds	r24, 0x0072	; 0x800072 <LineCheckerRelaySost>
    12f2:	08 95       	ret
    12f4:	80 e0       	ldi	r24, 0x00	; 0
    12f6:	08 95       	ret

000012f8 <get_emergency_input>:
    12f8:	80 91 74 00 	lds	r24, 0x0074	; 0x800074 <EmergencyInputSost>
    12fc:	08 95       	ret

000012fe <set_discret_output>:
    12fe:	90 e0       	ldi	r25, 0x00	; 0
    1300:	fc 01       	movw	r30, r24
    1302:	31 97       	sbiw	r30, 0x01	; 1
    1304:	e7 30       	cpi	r30, 0x07	; 7
    1306:	f1 05       	cpc	r31, r1
    1308:	08 f0       	brcs	.+2      	; 0x130c <set_discret_output+0xe>
    130a:	4b c0       	rjmp	.+150    	; 0x13a2 <set_discret_output+0xa4>
    130c:	e6 5d       	subi	r30, 0xD6	; 214
    130e:	ff 4f       	sbci	r31, 0xFF	; 255
    1310:	0c 94 05 14 	jmp	0x280a	; 0x280a <__tablejump2__>
    1314:	61 30       	cpi	r22, 0x01	; 1
    1316:	21 f4       	brne	.+8      	; 0x1320 <set_discret_output+0x22>
    1318:	80 91 71 00 	lds	r24, 0x0071	; 0x800071 <SostDD4>
    131c:	81 60       	ori	r24, 0x01	; 1
    131e:	11 c0       	rjmp	.+34     	; 0x1342 <set_discret_output+0x44>
    1320:	62 30       	cpi	r22, 0x02	; 2
    1322:	51 f5       	brne	.+84     	; 0x1378 <set_discret_output+0x7a>
    1324:	80 91 71 00 	lds	r24, 0x0071	; 0x800071 <SostDD4>
    1328:	8e 7f       	andi	r24, 0xFE	; 254
    132a:	0b c0       	rjmp	.+22     	; 0x1342 <set_discret_output+0x44>
    132c:	61 30       	cpi	r22, 0x01	; 1
    132e:	21 f4       	brne	.+8      	; 0x1338 <set_discret_output+0x3a>
    1330:	80 91 71 00 	lds	r24, 0x0071	; 0x800071 <SostDD4>
    1334:	82 60       	ori	r24, 0x02	; 2
    1336:	05 c0       	rjmp	.+10     	; 0x1342 <set_discret_output+0x44>
    1338:	62 30       	cpi	r22, 0x02	; 2
    133a:	f1 f4       	brne	.+60     	; 0x1378 <set_discret_output+0x7a>
    133c:	80 91 71 00 	lds	r24, 0x0071	; 0x800071 <SostDD4>
    1340:	8d 7f       	andi	r24, 0xFD	; 253
    1342:	80 93 71 00 	sts	0x0071, r24	; 0x800071 <SostDD4>
    1346:	18 c0       	rjmp	.+48     	; 0x1378 <set_discret_output+0x7a>
    1348:	61 30       	cpi	r22, 0x01	; 1
    134a:	21 f4       	brne	.+8      	; 0x1354 <set_discret_output+0x56>
    134c:	80 91 71 00 	lds	r24, 0x0071	; 0x800071 <SostDD4>
    1350:	84 60       	ori	r24, 0x04	; 4
    1352:	25 c0       	rjmp	.+74     	; 0x139e <set_discret_output+0xa0>
    1354:	62 30       	cpi	r22, 0x02	; 2
    1356:	29 f5       	brne	.+74     	; 0x13a2 <set_discret_output+0xa4>
    1358:	80 91 71 00 	lds	r24, 0x0071	; 0x800071 <SostDD4>
    135c:	8b 7f       	andi	r24, 0xFB	; 251
    135e:	1f c0       	rjmp	.+62     	; 0x139e <set_discret_output+0xa0>
    1360:	61 30       	cpi	r22, 0x01	; 1
    1362:	21 f4       	brne	.+8      	; 0x136c <set_discret_output+0x6e>
    1364:	80 91 71 00 	lds	r24, 0x0071	; 0x800071 <SostDD4>
    1368:	88 60       	ori	r24, 0x08	; 8
    136a:	19 c0       	rjmp	.+50     	; 0x139e <set_discret_output+0xa0>
    136c:	62 30       	cpi	r22, 0x02	; 2
    136e:	c9 f4       	brne	.+50     	; 0x13a2 <set_discret_output+0xa4>
    1370:	80 91 71 00 	lds	r24, 0x0071	; 0x800071 <SostDD4>
    1374:	87 7f       	andi	r24, 0xF7	; 247
    1376:	13 c0       	rjmp	.+38     	; 0x139e <set_discret_output+0xa0>
    1378:	80 91 71 00 	lds	r24, 0x0071	; 0x800071 <SostDD4>
    137c:	80 61       	ori	r24, 0x10	; 16
    137e:	0f c0       	rjmp	.+30     	; 0x139e <set_discret_output+0xa0>
    1380:	61 30       	cpi	r22, 0x01	; 1
    1382:	21 f4       	brne	.+8      	; 0x138c <set_discret_output+0x8e>
    1384:	80 91 71 00 	lds	r24, 0x0071	; 0x800071 <SostDD4>
    1388:	80 62       	ori	r24, 0x20	; 32
    138a:	09 c0       	rjmp	.+18     	; 0x139e <set_discret_output+0xa0>
    138c:	62 30       	cpi	r22, 0x02	; 2
    138e:	49 f4       	brne	.+18     	; 0x13a2 <set_discret_output+0xa4>
    1390:	80 91 71 00 	lds	r24, 0x0071	; 0x800071 <SostDD4>
    1394:	8f 7d       	andi	r24, 0xDF	; 223
    1396:	03 c0       	rjmp	.+6      	; 0x139e <set_discret_output+0xa0>
    1398:	80 91 71 00 	lds	r24, 0x0071	; 0x800071 <SostDD4>
    139c:	8c 7e       	andi	r24, 0xEC	; 236
    139e:	80 93 71 00 	sts	0x0071, r24	; 0x800071 <SostDD4>
    13a2:	80 91 71 00 	lds	r24, 0x0071	; 0x800071 <SostDD4>
    13a6:	63 e0       	ldi	r22, 0x03	; 3
    13a8:	0c 94 4e 09 	jmp	0x129c	; 0x129c <set_relay>

000013ac <select_audio_source>:
    13ac:	83 30       	cpi	r24, 0x03	; 3
    13ae:	d9 f0       	breq	.+54     	; 0x13e6 <select_audio_source+0x3a>
    13b0:	28 f4       	brcc	.+10     	; 0x13bc <select_audio_source+0x10>
    13b2:	81 30       	cpi	r24, 0x01	; 1
    13b4:	e9 f0       	breq	.+58     	; 0x13f0 <select_audio_source+0x44>
    13b6:	82 30       	cpi	r24, 0x02	; 2
    13b8:	89 f0       	breq	.+34     	; 0x13dc <select_audio_source+0x30>
    13ba:	08 95       	ret
    13bc:	85 30       	cpi	r24, 0x05	; 5
    13be:	21 f0       	breq	.+8      	; 0x13c8 <select_audio_source+0x1c>
    13c0:	28 f0       	brcs	.+10     	; 0x13cc <select_audio_source+0x20>
    13c2:	86 30       	cpi	r24, 0x06	; 6
    13c4:	d1 f0       	breq	.+52     	; 0x13fa <select_audio_source+0x4e>
    13c6:	08 95       	ret
    13c8:	80 e0       	ldi	r24, 0x00	; 0
    13ca:	13 c0       	rjmp	.+38     	; 0x13f2 <select_audio_source+0x46>
    13cc:	82 e0       	ldi	r24, 0x02	; 2
    13ce:	0e 94 3e 0a 	call	0x147c	; 0x147c <hef4052_master_in>
    13d2:	80 e0       	ldi	r24, 0x00	; 0
    13d4:	0e 94 50 0a 	call	0x14a0	; 0x14a0 <hef4052_um>
    13d8:	c2 9a       	sbi	0x18, 2	; 24
    13da:	08 95       	ret
    13dc:	83 e0       	ldi	r24, 0x03	; 3
    13de:	0e 94 3e 0a 	call	0x147c	; 0x147c <hef4052_master_in>
    13e2:	82 e0       	ldi	r24, 0x02	; 2
    13e4:	0e c0       	rjmp	.+28     	; 0x1402 <select_audio_source+0x56>
    13e6:	83 e0       	ldi	r24, 0x03	; 3
    13e8:	0e 94 3e 0a 	call	0x147c	; 0x147c <hef4052_master_in>
    13ec:	81 e0       	ldi	r24, 0x01	; 1
    13ee:	09 c0       	rjmp	.+18     	; 0x1402 <select_audio_source+0x56>
    13f0:	81 e0       	ldi	r24, 0x01	; 1
    13f2:	0e 94 3e 0a 	call	0x147c	; 0x147c <hef4052_master_in>
    13f6:	80 e0       	ldi	r24, 0x00	; 0
    13f8:	04 c0       	rjmp	.+8      	; 0x1402 <select_audio_source+0x56>
    13fa:	83 e0       	ldi	r24, 0x03	; 3
    13fc:	0e 94 3e 0a 	call	0x147c	; 0x147c <hef4052_master_in>
    1400:	83 e0       	ldi	r24, 0x03	; 3
    1402:	0e 94 50 0a 	call	0x14a0	; 0x14a0 <hef4052_um>
    1406:	c2 98       	cbi	0x18, 2	; 24
    1408:	08 95       	ret

0000140a <power_amplifier_control>:
    140a:	85 30       	cpi	r24, 0x05	; 5
    140c:	71 f4       	brne	.+28     	; 0x142a <power_amplifier_control+0x20>
    140e:	86 99       	sbic	0x10, 6	; 16
    1410:	10 c0       	rjmp	.+32     	; 0x1432 <power_amplifier_control+0x28>
    1412:	86 e0       	ldi	r24, 0x06	; 6
    1414:	0e 94 d6 09 	call	0x13ac	; 0x13ac <select_audio_source>
    1418:	8a e0       	ldi	r24, 0x0A	; 10
    141a:	90 e0       	ldi	r25, 0x00	; 0
    141c:	0e 94 eb 0d 	call	0x1bd6	; 0x1bd6 <ms_delay>
    1420:	96 9a       	sbi	0x12, 6	; 18
    1422:	8c ed       	ldi	r24, 0xDC	; 220
    1424:	95 e0       	ldi	r25, 0x05	; 5
    1426:	0c 94 eb 0d 	jmp	0x1bd6	; 0x1bd6 <ms_delay>
    142a:	8e 34       	cpi	r24, 0x4E	; 78
    142c:	11 f4       	brne	.+4      	; 0x1432 <power_amplifier_control+0x28>
    142e:	86 99       	sbic	0x10, 6	; 16
    1430:	96 98       	cbi	0x12, 6	; 18
    1432:	08 95       	ret

00001434 <consol_select_audio_channel>:
    1434:	82 30       	cpi	r24, 0x02	; 2
    1436:	41 f0       	breq	.+16     	; 0x1448 <consol_select_audio_channel+0x14>
    1438:	83 30       	cpi	r24, 0x03	; 3
    143a:	79 f0       	breq	.+30     	; 0x145a <consol_select_audio_channel+0x26>
    143c:	81 30       	cpi	r24, 0x01	; 1
    143e:	91 f4       	brne	.+36     	; 0x1464 <consol_select_audio_channel+0x30>
    1440:	80 91 71 00 	lds	r24, 0x0071	; 0x800071 <SostDD4>
    1444:	8f 73       	andi	r24, 0x3F	; 63
    1446:	0c c0       	rjmp	.+24     	; 0x1460 <consol_select_audio_channel+0x2c>
    1448:	80 91 71 00 	lds	r24, 0x0071	; 0x800071 <SostDD4>
    144c:	8f 7b       	andi	r24, 0xBF	; 191
    144e:	80 93 71 00 	sts	0x0071, r24	; 0x800071 <SostDD4>
    1452:	80 91 71 00 	lds	r24, 0x0071	; 0x800071 <SostDD4>
    1456:	80 68       	ori	r24, 0x80	; 128
    1458:	03 c0       	rjmp	.+6      	; 0x1460 <consol_select_audio_channel+0x2c>
    145a:	80 91 71 00 	lds	r24, 0x0071	; 0x800071 <SostDD4>
    145e:	80 6c       	ori	r24, 0xC0	; 192
    1460:	80 93 71 00 	sts	0x0071, r24	; 0x800071 <SostDD4>
    1464:	80 91 71 00 	lds	r24, 0x0071	; 0x800071 <SostDD4>
    1468:	63 e0       	ldi	r22, 0x03	; 3
    146a:	0c 94 4e 09 	jmp	0x129c	; 0x129c <set_relay>

0000146e <hef4052_init>:
    146e:	84 b3       	in	r24, 0x14	; 20
    1470:	8f 60       	ori	r24, 0x0F	; 15
    1472:	84 bb       	out	0x14, r24	; 20
    1474:	85 b3       	in	r24, 0x15	; 21
    1476:	8f 60       	ori	r24, 0x0F	; 15
    1478:	85 bb       	out	0x15, r24	; 21
    147a:	08 95       	ret

0000147c <hef4052_master_in>:
    147c:	81 30       	cpi	r24, 0x01	; 1
    147e:	41 f0       	breq	.+16     	; 0x1490 <hef4052_master_in+0x14>
    1480:	28 f0       	brcs	.+10     	; 0x148c <hef4052_master_in+0x10>
    1482:	82 30       	cpi	r24, 0x02	; 2
    1484:	41 f0       	breq	.+16     	; 0x1496 <hef4052_master_in+0x1a>
    1486:	83 30       	cpi	r24, 0x03	; 3
    1488:	41 f0       	breq	.+16     	; 0x149a <hef4052_master_in+0x1e>
    148a:	08 95       	ret
    148c:	a8 98       	cbi	0x15, 0	; 21
    148e:	01 c0       	rjmp	.+2      	; 0x1492 <hef4052_master_in+0x16>
    1490:	a8 9a       	sbi	0x15, 0	; 21
    1492:	a9 98       	cbi	0x15, 1	; 21
    1494:	08 95       	ret
    1496:	a8 98       	cbi	0x15, 0	; 21
    1498:	01 c0       	rjmp	.+2      	; 0x149c <hef4052_master_in+0x20>
    149a:	a8 9a       	sbi	0x15, 0	; 21
    149c:	a9 9a       	sbi	0x15, 1	; 21
    149e:	08 95       	ret

000014a0 <hef4052_um>:
    14a0:	81 30       	cpi	r24, 0x01	; 1
    14a2:	59 f0       	breq	.+22     	; 0x14ba <hef4052_um+0x1a>
    14a4:	28 f0       	brcs	.+10     	; 0x14b0 <hef4052_um+0x10>
    14a6:	82 30       	cpi	r24, 0x02	; 2
    14a8:	29 f0       	breq	.+10     	; 0x14b4 <hef4052_um+0x14>
    14aa:	83 30       	cpi	r24, 0x03	; 3
    14ac:	41 f0       	breq	.+16     	; 0x14be <hef4052_um+0x1e>
    14ae:	08 95       	ret
    14b0:	aa 98       	cbi	0x15, 2	; 21
    14b2:	01 c0       	rjmp	.+2      	; 0x14b6 <hef4052_um+0x16>
    14b4:	aa 9a       	sbi	0x15, 2	; 21
    14b6:	ab 98       	cbi	0x15, 3	; 21
    14b8:	08 95       	ret
    14ba:	aa 98       	cbi	0x15, 2	; 21
    14bc:	01 c0       	rjmp	.+2      	; 0x14c0 <hef4052_um+0x20>
    14be:	aa 9a       	sbi	0x15, 2	; 21
    14c0:	ab 9a       	sbi	0x15, 3	; 21
    14c2:	08 95       	ret

000014c4 <write_byte_to_pt6964>:
    14c4:	20 e0       	ldi	r18, 0x00	; 0
    14c6:	30 e0       	ldi	r19, 0x00	; 0
    14c8:	90 e0       	ldi	r25, 0x00	; 0
    14ca:	d9 98       	cbi	0x1b, 1	; 27
    14cc:	ac 01       	movw	r20, r24
    14ce:	02 2e       	mov	r0, r18
    14d0:	02 c0       	rjmp	.+4      	; 0x14d6 <write_byte_to_pt6964+0x12>
    14d2:	55 95       	asr	r21
    14d4:	47 95       	ror	r20
    14d6:	0a 94       	dec	r0
    14d8:	e2 f7       	brpl	.-8      	; 0x14d2 <write_byte_to_pt6964+0xe>
    14da:	40 ff       	sbrs	r20, 0
    14dc:	02 c0       	rjmp	.+4      	; 0x14e2 <write_byte_to_pt6964+0x1e>
    14de:	da 9a       	sbi	0x1b, 2	; 27
    14e0:	01 c0       	rjmp	.+2      	; 0x14e4 <write_byte_to_pt6964+0x20>
    14e2:	da 98       	cbi	0x1b, 2	; 27
    14e4:	d9 9a       	sbi	0x1b, 1	; 27
    14e6:	2f 5f       	subi	r18, 0xFF	; 255
    14e8:	3f 4f       	sbci	r19, 0xFF	; 255
    14ea:	28 30       	cpi	r18, 0x08	; 8
    14ec:	31 05       	cpc	r19, r1
    14ee:	69 f7       	brne	.-38     	; 0x14ca <write_byte_to_pt6964+0x6>
    14f0:	08 95       	ret

000014f2 <write_command_to_pt6964>:
    14f2:	d8 98       	cbi	0x1b, 0	; 27
    14f4:	0e 94 62 0a 	call	0x14c4	; 0x14c4 <write_byte_to_pt6964>
    14f8:	da 98       	cbi	0x1b, 2	; 27
    14fa:	d8 9a       	sbi	0x1b, 0	; 27
    14fc:	08 95       	ret

000014fe <sorting_button_bit.constprop.1>:
    14fe:	e8 2f       	mov	r30, r24
    1500:	60 e0       	ldi	r22, 0x00	; 0
    1502:	70 e0       	ldi	r23, 0x00	; 0
    1504:	80 e0       	ldi	r24, 0x00	; 0
    1506:	db 01       	movw	r26, r22
    1508:	a0 5e       	subi	r26, 0xE0	; 224
    150a:	be 4f       	sbci	r27, 0xFE	; 254
    150c:	9c 91       	ld	r25, X
    150e:	2c 91       	ld	r18, X
    1510:	30 e0       	ldi	r19, 0x00	; 0
    1512:	0e 2e       	mov	r0, r30
    1514:	02 c0       	rjmp	.+4      	; 0x151a <sorting_button_bit.constprop.1+0x1c>
    1516:	35 95       	asr	r19
    1518:	27 95       	ror	r18
    151a:	0a 94       	dec	r0
    151c:	e2 f7       	brpl	.-8      	; 0x1516 <sorting_button_bit.constprop.1+0x18>
    151e:	28 70       	andi	r18, 0x08	; 8
    1520:	33 27       	eor	r19, r19
    1522:	a9 01       	movw	r20, r18
    1524:	55 95       	asr	r21
    1526:	47 95       	ror	r20
    1528:	55 95       	asr	r21
    152a:	47 95       	ror	r20
    152c:	29 2f       	mov	r18, r25
    152e:	30 e0       	ldi	r19, 0x00	; 0
    1530:	0e 2e       	mov	r0, r30
    1532:	02 c0       	rjmp	.+4      	; 0x1538 <sorting_button_bit.constprop.1+0x3a>
    1534:	35 95       	asr	r19
    1536:	27 95       	ror	r18
    1538:	0a 94       	dec	r0
    153a:	e2 f7       	brpl	.-8      	; 0x1534 <sorting_button_bit.constprop.1+0x36>
    153c:	21 70       	andi	r18, 0x01	; 1
    153e:	33 27       	eor	r19, r19
    1540:	24 2b       	or	r18, r20
    1542:	35 2b       	or	r19, r21
    1544:	ab 01       	movw	r20, r22
    1546:	44 0f       	add	r20, r20
    1548:	55 1f       	adc	r21, r21
    154a:	01 c0       	rjmp	.+2      	; 0x154e <sorting_button_bit.constprop.1+0x50>
    154c:	22 0f       	add	r18, r18
    154e:	4a 95       	dec	r20
    1550:	ea f7       	brpl	.-6      	; 0x154c <sorting_button_bit.constprop.1+0x4e>
    1552:	82 2b       	or	r24, r18
    1554:	6f 5f       	subi	r22, 0xFF	; 255
    1556:	7f 4f       	sbci	r23, 0xFF	; 255
    1558:	64 30       	cpi	r22, 0x04	; 4
    155a:	71 05       	cpc	r23, r1
    155c:	a1 f6       	brne	.-88     	; 0x1506 <sorting_button_bit.constprop.1+0x8>
    155e:	08 95       	ret

00001560 <pt6964_init>:
    1560:	d1 9a       	sbi	0x1a, 1	; 26
    1562:	d0 9a       	sbi	0x1a, 0	; 26
    1564:	d2 9a       	sbi	0x1a, 2	; 26
    1566:	d8 9a       	sbi	0x1b, 0	; 27
    1568:	d9 9a       	sbi	0x1b, 1	; 27
    156a:	da 98       	cbi	0x1b, 2	; 27
    156c:	08 95       	ret

0000156e <write_data_to_face_penel>:
    156e:	cf 93       	push	r28
    1570:	df 93       	push	r29
    1572:	1f 92       	push	r1
    1574:	cd b7       	in	r28, 0x3d	; 61
    1576:	de b7       	in	r29, 0x3e	; 62
    1578:	19 82       	std	Y+1, r1	; 0x01
    157a:	80 e4       	ldi	r24, 0x40	; 64
    157c:	0e 94 79 0a 	call	0x14f2	; 0x14f2 <write_command_to_pt6964>
    1580:	d8 98       	cbi	0x1b, 0	; 27
    1582:	80 ec       	ldi	r24, 0xC0	; 192
    1584:	0e 94 62 0a 	call	0x14c4	; 0x14c4 <write_byte_to_pt6964>
    1588:	19 82       	std	Y+1, r1	; 0x01
    158a:	89 81       	ldd	r24, Y+1	; 0x01
    158c:	8b 30       	cpi	r24, 0x0B	; 11
    158e:	58 f4       	brcc	.+22     	; 0x15a6 <write_data_to_face_penel+0x38>
    1590:	e9 81       	ldd	r30, Y+1	; 0x01
    1592:	f0 e0       	ldi	r31, 0x00	; 0
    1594:	e5 5d       	subi	r30, 0xD5	; 213
    1596:	fe 4f       	sbci	r31, 0xFE	; 254
    1598:	80 81       	ld	r24, Z
    159a:	0e 94 62 0a 	call	0x14c4	; 0x14c4 <write_byte_to_pt6964>
    159e:	89 81       	ldd	r24, Y+1	; 0x01
    15a0:	8f 5f       	subi	r24, 0xFF	; 255
    15a2:	89 83       	std	Y+1, r24	; 0x01
    15a4:	f2 cf       	rjmp	.-28     	; 0x158a <write_data_to_face_penel+0x1c>
    15a6:	d8 9a       	sbi	0x1b, 0	; 27
    15a8:	83 e0       	ldi	r24, 0x03	; 3
    15aa:	0e 94 79 0a 	call	0x14f2	; 0x14f2 <write_command_to_pt6964>
    15ae:	80 91 61 00 	lds	r24, 0x0061	; 0x800061 <DisplayBright>
    15b2:	88 68       	ori	r24, 0x88	; 136
    15b4:	0e 94 79 0a 	call	0x14f2	; 0x14f2 <write_command_to_pt6964>
    15b8:	0f 90       	pop	r0
    15ba:	df 91       	pop	r29
    15bc:	cf 91       	pop	r28
    15be:	08 95       	ret

000015c0 <bin_to_dec>:
    15c0:	20 e0       	ldi	r18, 0x00	; 0
    15c2:	8a 30       	cpi	r24, 0x0A	; 10
    15c4:	18 f0       	brcs	.+6      	; 0x15cc <bin_to_dec+0xc>
    15c6:	8a 50       	subi	r24, 0x0A	; 10
    15c8:	2f 5f       	subi	r18, 0xFF	; 255
    15ca:	fb cf       	rjmp	.-10     	; 0x15c2 <bin_to_dec+0x2>
    15cc:	90 e1       	ldi	r25, 0x10	; 16
    15ce:	29 9f       	mul	r18, r25
    15d0:	90 01       	movw	r18, r0
    15d2:	11 24       	eor	r1, r1
    15d4:	82 2b       	or	r24, r18
    15d6:	08 95       	ret

000015d8 <display_set>:
    15d8:	f8 94       	cli
    15da:	20 91 33 01 	lds	r18, 0x0133	; 0x800133 <IndicatorsFacePanelStr+0x8>
    15de:	30 91 31 01 	lds	r19, 0x0131	; 0x800131 <IndicatorsFacePanelStr+0x6>
    15e2:	20 78       	andi	r18, 0x80	; 128
    15e4:	fc 01       	movw	r30, r24
    15e6:	8f 3f       	cpi	r24, 0xFF	; 255
    15e8:	91 05       	cpc	r25, r1
    15ea:	09 f0       	breq	.+2      	; 0x15ee <display_set+0x16>
    15ec:	90 f4       	brcc	.+36     	; 0x1612 <display_set+0x3a>
    15ee:	ef 70       	andi	r30, 0x0F	; 15
    15f0:	ff 27       	eor	r31, r31
    15f2:	ee 59       	subi	r30, 0x9E	; 158
    15f4:	ff 4f       	sbci	r31, 0xFF	; 255
    15f6:	e4 91       	lpm	r30, Z
    15f8:	2e 2b       	or	r18, r30
    15fa:	20 93 33 01 	sts	0x0133, r18	; 0x800133 <IndicatorsFacePanelStr+0x8>
    15fe:	30 78       	andi	r19, 0x80	; 128
    1600:	fc 01       	movw	r30, r24
    1602:	e0 7f       	andi	r30, 0xF0	; 240
    1604:	ff 27       	eor	r31, r31
    1606:	94 e0       	ldi	r25, 0x04	; 4
    1608:	f6 95       	lsr	r31
    160a:	e7 95       	ror	r30
    160c:	9a 95       	dec	r25
    160e:	e1 f7       	brne	.-8      	; 0x1608 <display_set+0x30>
    1610:	0d c0       	rjmp	.+26     	; 0x162c <display_set+0x54>
    1612:	ff 27       	eor	r31, r31
    1614:	ee 59       	subi	r30, 0x9E	; 158
    1616:	ff 4f       	sbci	r31, 0xFF	; 255
    1618:	e4 91       	lpm	r30, Z
    161a:	2e 2b       	or	r18, r30
    161c:	20 93 33 01 	sts	0x0133, r18	; 0x800133 <IndicatorsFacePanelStr+0x8>
    1620:	30 78       	andi	r19, 0x80	; 128
    1622:	fc 01       	movw	r30, r24
    1624:	ee 27       	eor	r30, r30
    1626:	ff 77       	andi	r31, 0x7F	; 127
    1628:	ef 2f       	mov	r30, r31
    162a:	ff 27       	eor	r31, r31
    162c:	ee 59       	subi	r30, 0x9E	; 158
    162e:	ff 4f       	sbci	r31, 0xFF	; 255
    1630:	e4 91       	lpm	r30, Z
    1632:	e3 2b       	or	r30, r19
    1634:	e0 93 31 01 	sts	0x0131, r30	; 0x800131 <IndicatorsFacePanelStr+0x6>
    1638:	78 94       	sei
    163a:	08 95       	ret

0000163c <display_off>:
    163c:	eb e2       	ldi	r30, 0x2B	; 43
    163e:	f1 e0       	ldi	r31, 0x01	; 1
    1640:	80 85       	ldd	r24, Z+8	; 0x08
    1642:	80 78       	andi	r24, 0x80	; 128
    1644:	80 87       	std	Z+8, r24	; 0x08
    1646:	86 81       	ldd	r24, Z+6	; 0x06
    1648:	80 78       	andi	r24, 0x80	; 128
    164a:	86 83       	std	Z+6, r24	; 0x06
    164c:	08 95       	ret

0000164e <power_led_green>:
    164e:	f8 94       	cli
    1650:	80 91 8b 00 	lds	r24, 0x008B	; 0x80008b <Timer0FlagReg>
    1654:	8f 7e       	andi	r24, 0xEF	; 239
    1656:	80 93 8b 00 	sts	0x008B, r24	; 0x80008b <Timer0FlagReg>
    165a:	80 91 34 01 	lds	r24, 0x0134	; 0x800134 <IndicatorsFacePanelStr+0x9>
    165e:	81 60       	ori	r24, 0x01	; 1
    1660:	80 93 34 01 	sts	0x0134, r24	; 0x800134 <IndicatorsFacePanelStr+0x9>
    1664:	0e 94 af 04 	call	0x95e	; 0x95e <get_charge_indication>
    1668:	90 91 34 01 	lds	r25, 0x0134	; 0x800134 <IndicatorsFacePanelStr+0x9>
    166c:	88 23       	and	r24, r24
    166e:	11 f0       	breq	.+4      	; 0x1674 <power_led_green+0x26>
    1670:	92 60       	ori	r25, 0x02	; 2
    1672:	01 c0       	rjmp	.+2      	; 0x1676 <power_led_green+0x28>
    1674:	9d 7f       	andi	r25, 0xFD	; 253
    1676:	90 93 34 01 	sts	0x0134, r25	; 0x800134 <IndicatorsFacePanelStr+0x9>
    167a:	78 94       	sei
    167c:	08 95       	ret

0000167e <power_led_blink_green>:
    167e:	f8 94       	cli
    1680:	80 91 8b 00 	lds	r24, 0x008B	; 0x80008b <Timer0FlagReg>
    1684:	80 61       	ori	r24, 0x10	; 16
    1686:	80 93 8b 00 	sts	0x008B, r24	; 0x80008b <Timer0FlagReg>
    168a:	78 94       	sei
    168c:	08 95       	ret

0000168e <set_line_checker_led_green>:
    168e:	90 91 2b 01 	lds	r25, 0x012B	; 0x80012b <IndicatorsFacePanelStr>
    1692:	80 ff       	sbrs	r24, 0
    1694:	02 c0       	rjmp	.+4      	; 0x169a <set_line_checker_led_green+0xc>
    1696:	91 60       	ori	r25, 0x01	; 1
    1698:	01 c0       	rjmp	.+2      	; 0x169c <set_line_checker_led_green+0xe>
    169a:	9e 7f       	andi	r25, 0xFE	; 254
    169c:	90 93 2b 01 	sts	0x012B, r25	; 0x80012b <IndicatorsFacePanelStr>
    16a0:	90 91 2b 01 	lds	r25, 0x012B	; 0x80012b <IndicatorsFacePanelStr>
    16a4:	81 ff       	sbrs	r24, 1
    16a6:	02 c0       	rjmp	.+4      	; 0x16ac <set_line_checker_led_green+0x1e>
    16a8:	94 60       	ori	r25, 0x04	; 4
    16aa:	01 c0       	rjmp	.+2      	; 0x16ae <set_line_checker_led_green+0x20>
    16ac:	9b 7f       	andi	r25, 0xFB	; 251
    16ae:	90 93 2b 01 	sts	0x012B, r25	; 0x80012b <IndicatorsFacePanelStr>
    16b2:	90 91 2b 01 	lds	r25, 0x012B	; 0x80012b <IndicatorsFacePanelStr>
    16b6:	82 ff       	sbrs	r24, 2
    16b8:	02 c0       	rjmp	.+4      	; 0x16be <set_line_checker_led_green+0x30>
    16ba:	90 61       	ori	r25, 0x10	; 16
    16bc:	01 c0       	rjmp	.+2      	; 0x16c0 <set_line_checker_led_green+0x32>
    16be:	9f 7e       	andi	r25, 0xEF	; 239
    16c0:	90 93 2b 01 	sts	0x012B, r25	; 0x80012b <IndicatorsFacePanelStr>
    16c4:	90 91 2b 01 	lds	r25, 0x012B	; 0x80012b <IndicatorsFacePanelStr>
    16c8:	83 ff       	sbrs	r24, 3
    16ca:	02 c0       	rjmp	.+4      	; 0x16d0 <set_line_checker_led_green+0x42>
    16cc:	90 64       	ori	r25, 0x40	; 64
    16ce:	01 c0       	rjmp	.+2      	; 0x16d2 <set_line_checker_led_green+0x44>
    16d0:	9f 7b       	andi	r25, 0xBF	; 191
    16d2:	90 93 2b 01 	sts	0x012B, r25	; 0x80012b <IndicatorsFacePanelStr>
    16d6:	90 91 2c 01 	lds	r25, 0x012C	; 0x80012c <IndicatorsFacePanelStr+0x1>
    16da:	84 ff       	sbrs	r24, 4
    16dc:	02 c0       	rjmp	.+4      	; 0x16e2 <set_line_checker_led_green+0x54>
    16de:	91 60       	ori	r25, 0x01	; 1
    16e0:	01 c0       	rjmp	.+2      	; 0x16e4 <set_line_checker_led_green+0x56>
    16e2:	9e 7f       	andi	r25, 0xFE	; 254
    16e4:	90 93 2c 01 	sts	0x012C, r25	; 0x80012c <IndicatorsFacePanelStr+0x1>
    16e8:	90 91 2d 01 	lds	r25, 0x012D	; 0x80012d <IndicatorsFacePanelStr+0x2>
    16ec:	85 ff       	sbrs	r24, 5
    16ee:	02 c0       	rjmp	.+4      	; 0x16f4 <set_line_checker_led_green+0x66>
    16f0:	91 60       	ori	r25, 0x01	; 1
    16f2:	01 c0       	rjmp	.+2      	; 0x16f6 <set_line_checker_led_green+0x68>
    16f4:	9e 7f       	andi	r25, 0xFE	; 254
    16f6:	90 93 2d 01 	sts	0x012D, r25	; 0x80012d <IndicatorsFacePanelStr+0x2>
    16fa:	90 91 2d 01 	lds	r25, 0x012D	; 0x80012d <IndicatorsFacePanelStr+0x2>
    16fe:	86 ff       	sbrs	r24, 6
    1700:	02 c0       	rjmp	.+4      	; 0x1706 <set_line_checker_led_green+0x78>
    1702:	94 60       	ori	r25, 0x04	; 4
    1704:	01 c0       	rjmp	.+2      	; 0x1708 <set_line_checker_led_green+0x7a>
    1706:	9b 7f       	andi	r25, 0xFB	; 251
    1708:	90 93 2d 01 	sts	0x012D, r25	; 0x80012d <IndicatorsFacePanelStr+0x2>
    170c:	90 91 2d 01 	lds	r25, 0x012D	; 0x80012d <IndicatorsFacePanelStr+0x2>
    1710:	87 ff       	sbrs	r24, 7
    1712:	03 c0       	rjmp	.+6      	; 0x171a <set_line_checker_led_green+0x8c>
    1714:	89 2f       	mov	r24, r25
    1716:	80 61       	ori	r24, 0x10	; 16
    1718:	02 c0       	rjmp	.+4      	; 0x171e <set_line_checker_led_green+0x90>
    171a:	89 2f       	mov	r24, r25
    171c:	8f 7e       	andi	r24, 0xEF	; 239
    171e:	80 93 2d 01 	sts	0x012D, r24	; 0x80012d <IndicatorsFacePanelStr+0x2>
    1722:	08 95       	ret

00001724 <set_line_checker_led_red>:
    1724:	90 91 2b 01 	lds	r25, 0x012B	; 0x80012b <IndicatorsFacePanelStr>
    1728:	80 ff       	sbrs	r24, 0
    172a:	02 c0       	rjmp	.+4      	; 0x1730 <set_line_checker_led_red+0xc>
    172c:	92 60       	ori	r25, 0x02	; 2
    172e:	01 c0       	rjmp	.+2      	; 0x1732 <set_line_checker_led_red+0xe>
    1730:	9d 7f       	andi	r25, 0xFD	; 253
    1732:	90 93 2b 01 	sts	0x012B, r25	; 0x80012b <IndicatorsFacePanelStr>
    1736:	90 91 2b 01 	lds	r25, 0x012B	; 0x80012b <IndicatorsFacePanelStr>
    173a:	81 ff       	sbrs	r24, 1
    173c:	02 c0       	rjmp	.+4      	; 0x1742 <set_line_checker_led_red+0x1e>
    173e:	98 60       	ori	r25, 0x08	; 8
    1740:	01 c0       	rjmp	.+2      	; 0x1744 <set_line_checker_led_red+0x20>
    1742:	97 7f       	andi	r25, 0xF7	; 247
    1744:	90 93 2b 01 	sts	0x012B, r25	; 0x80012b <IndicatorsFacePanelStr>
    1748:	90 91 2b 01 	lds	r25, 0x012B	; 0x80012b <IndicatorsFacePanelStr>
    174c:	82 ff       	sbrs	r24, 2
    174e:	02 c0       	rjmp	.+4      	; 0x1754 <set_line_checker_led_red+0x30>
    1750:	90 62       	ori	r25, 0x20	; 32
    1752:	01 c0       	rjmp	.+2      	; 0x1756 <set_line_checker_led_red+0x32>
    1754:	9f 7d       	andi	r25, 0xDF	; 223
    1756:	90 93 2b 01 	sts	0x012B, r25	; 0x80012b <IndicatorsFacePanelStr>
    175a:	90 91 2b 01 	lds	r25, 0x012B	; 0x80012b <IndicatorsFacePanelStr>
    175e:	83 ff       	sbrs	r24, 3
    1760:	02 c0       	rjmp	.+4      	; 0x1766 <set_line_checker_led_red+0x42>
    1762:	90 68       	ori	r25, 0x80	; 128
    1764:	01 c0       	rjmp	.+2      	; 0x1768 <set_line_checker_led_red+0x44>
    1766:	9f 77       	andi	r25, 0x7F	; 127
    1768:	90 93 2b 01 	sts	0x012B, r25	; 0x80012b <IndicatorsFacePanelStr>
    176c:	90 91 2c 01 	lds	r25, 0x012C	; 0x80012c <IndicatorsFacePanelStr+0x1>
    1770:	84 ff       	sbrs	r24, 4
    1772:	02 c0       	rjmp	.+4      	; 0x1778 <set_line_checker_led_red+0x54>
    1774:	92 60       	ori	r25, 0x02	; 2
    1776:	01 c0       	rjmp	.+2      	; 0x177a <set_line_checker_led_red+0x56>
    1778:	9d 7f       	andi	r25, 0xFD	; 253
    177a:	90 93 2c 01 	sts	0x012C, r25	; 0x80012c <IndicatorsFacePanelStr+0x1>
    177e:	90 91 2d 01 	lds	r25, 0x012D	; 0x80012d <IndicatorsFacePanelStr+0x2>
    1782:	85 ff       	sbrs	r24, 5
    1784:	02 c0       	rjmp	.+4      	; 0x178a <set_line_checker_led_red+0x66>
    1786:	92 60       	ori	r25, 0x02	; 2
    1788:	01 c0       	rjmp	.+2      	; 0x178c <set_line_checker_led_red+0x68>
    178a:	9d 7f       	andi	r25, 0xFD	; 253
    178c:	90 93 2d 01 	sts	0x012D, r25	; 0x80012d <IndicatorsFacePanelStr+0x2>
    1790:	90 91 2d 01 	lds	r25, 0x012D	; 0x80012d <IndicatorsFacePanelStr+0x2>
    1794:	86 ff       	sbrs	r24, 6
    1796:	02 c0       	rjmp	.+4      	; 0x179c <set_line_checker_led_red+0x78>
    1798:	98 60       	ori	r25, 0x08	; 8
    179a:	01 c0       	rjmp	.+2      	; 0x179e <set_line_checker_led_red+0x7a>
    179c:	97 7f       	andi	r25, 0xF7	; 247
    179e:	90 93 2d 01 	sts	0x012D, r25	; 0x80012d <IndicatorsFacePanelStr+0x2>
    17a2:	90 91 2d 01 	lds	r25, 0x012D	; 0x80012d <IndicatorsFacePanelStr+0x2>
    17a6:	87 ff       	sbrs	r24, 7
    17a8:	03 c0       	rjmp	.+6      	; 0x17b0 <set_line_checker_led_red+0x8c>
    17aa:	89 2f       	mov	r24, r25
    17ac:	80 62       	ori	r24, 0x20	; 32
    17ae:	02 c0       	rjmp	.+4      	; 0x17b4 <set_line_checker_led_red+0x90>
    17b0:	89 2f       	mov	r24, r25
    17b2:	8f 7d       	andi	r24, 0xDF	; 223
    17b4:	80 93 2d 01 	sts	0x012D, r24	; 0x80012d <IndicatorsFacePanelStr+0x2>
    17b8:	08 95       	ret

000017ba <set_speaker_led_green>:
    17ba:	90 91 2d 01 	lds	r25, 0x012D	; 0x80012d <IndicatorsFacePanelStr+0x2>
    17be:	80 ff       	sbrs	r24, 0
    17c0:	02 c0       	rjmp	.+4      	; 0x17c6 <set_speaker_led_green+0xc>
    17c2:	90 64       	ori	r25, 0x40	; 64
    17c4:	01 c0       	rjmp	.+2      	; 0x17c8 <set_speaker_led_green+0xe>
    17c6:	9f 7b       	andi	r25, 0xBF	; 191
    17c8:	90 93 2d 01 	sts	0x012D, r25	; 0x80012d <IndicatorsFacePanelStr+0x2>
    17cc:	90 91 2e 01 	lds	r25, 0x012E	; 0x80012e <IndicatorsFacePanelStr+0x3>
    17d0:	81 ff       	sbrs	r24, 1
    17d2:	02 c0       	rjmp	.+4      	; 0x17d8 <set_speaker_led_green+0x1e>
    17d4:	91 60       	ori	r25, 0x01	; 1
    17d6:	01 c0       	rjmp	.+2      	; 0x17da <set_speaker_led_green+0x20>
    17d8:	9e 7f       	andi	r25, 0xFE	; 254
    17da:	90 93 2e 01 	sts	0x012E, r25	; 0x80012e <IndicatorsFacePanelStr+0x3>
    17de:	90 91 2f 01 	lds	r25, 0x012F	; 0x80012f <IndicatorsFacePanelStr+0x4>
    17e2:	82 ff       	sbrs	r24, 2
    17e4:	02 c0       	rjmp	.+4      	; 0x17ea <set_speaker_led_green+0x30>
    17e6:	91 60       	ori	r25, 0x01	; 1
    17e8:	01 c0       	rjmp	.+2      	; 0x17ec <set_speaker_led_green+0x32>
    17ea:	9e 7f       	andi	r25, 0xFE	; 254
    17ec:	90 93 2f 01 	sts	0x012F, r25	; 0x80012f <IndicatorsFacePanelStr+0x4>
    17f0:	90 91 2f 01 	lds	r25, 0x012F	; 0x80012f <IndicatorsFacePanelStr+0x4>
    17f4:	83 ff       	sbrs	r24, 3
    17f6:	02 c0       	rjmp	.+4      	; 0x17fc <set_speaker_led_green+0x42>
    17f8:	94 60       	ori	r25, 0x04	; 4
    17fa:	01 c0       	rjmp	.+2      	; 0x17fe <set_speaker_led_green+0x44>
    17fc:	9b 7f       	andi	r25, 0xFB	; 251
    17fe:	90 93 2f 01 	sts	0x012F, r25	; 0x80012f <IndicatorsFacePanelStr+0x4>
    1802:	90 91 2f 01 	lds	r25, 0x012F	; 0x80012f <IndicatorsFacePanelStr+0x4>
    1806:	84 ff       	sbrs	r24, 4
    1808:	02 c0       	rjmp	.+4      	; 0x180e <set_speaker_led_green+0x54>
    180a:	90 61       	ori	r25, 0x10	; 16
    180c:	01 c0       	rjmp	.+2      	; 0x1810 <set_speaker_led_green+0x56>
    180e:	9f 7e       	andi	r25, 0xEF	; 239
    1810:	90 93 2f 01 	sts	0x012F, r25	; 0x80012f <IndicatorsFacePanelStr+0x4>
    1814:	90 91 2f 01 	lds	r25, 0x012F	; 0x80012f <IndicatorsFacePanelStr+0x4>
    1818:	85 ff       	sbrs	r24, 5
    181a:	02 c0       	rjmp	.+4      	; 0x1820 <set_speaker_led_green+0x66>
    181c:	90 64       	ori	r25, 0x40	; 64
    181e:	01 c0       	rjmp	.+2      	; 0x1822 <set_speaker_led_green+0x68>
    1820:	9f 7b       	andi	r25, 0xBF	; 191
    1822:	90 93 2f 01 	sts	0x012F, r25	; 0x80012f <IndicatorsFacePanelStr+0x4>
    1826:	90 91 30 01 	lds	r25, 0x0130	; 0x800130 <IndicatorsFacePanelStr+0x5>
    182a:	86 ff       	sbrs	r24, 6
    182c:	02 c0       	rjmp	.+4      	; 0x1832 <set_speaker_led_green+0x78>
    182e:	91 60       	ori	r25, 0x01	; 1
    1830:	01 c0       	rjmp	.+2      	; 0x1834 <set_speaker_led_green+0x7a>
    1832:	9e 7f       	andi	r25, 0xFE	; 254
    1834:	90 93 30 01 	sts	0x0130, r25	; 0x800130 <IndicatorsFacePanelStr+0x5>
    1838:	90 91 31 01 	lds	r25, 0x0131	; 0x800131 <IndicatorsFacePanelStr+0x6>
    183c:	87 ff       	sbrs	r24, 7
    183e:	03 c0       	rjmp	.+6      	; 0x1846 <set_speaker_led_green+0x8c>
    1840:	89 2f       	mov	r24, r25
    1842:	80 68       	ori	r24, 0x80	; 128
    1844:	02 c0       	rjmp	.+4      	; 0x184a <set_speaker_led_green+0x90>
    1846:	89 2f       	mov	r24, r25
    1848:	8f 77       	andi	r24, 0x7F	; 127
    184a:	80 93 31 01 	sts	0x0131, r24	; 0x800131 <IndicatorsFacePanelStr+0x6>
    184e:	08 95       	ret

00001850 <set_speaker_led_red>:
    1850:	90 91 2d 01 	lds	r25, 0x012D	; 0x80012d <IndicatorsFacePanelStr+0x2>
    1854:	80 ff       	sbrs	r24, 0
    1856:	02 c0       	rjmp	.+4      	; 0x185c <set_speaker_led_red+0xc>
    1858:	90 68       	ori	r25, 0x80	; 128
    185a:	01 c0       	rjmp	.+2      	; 0x185e <set_speaker_led_red+0xe>
    185c:	9f 77       	andi	r25, 0x7F	; 127
    185e:	90 93 2d 01 	sts	0x012D, r25	; 0x80012d <IndicatorsFacePanelStr+0x2>
    1862:	90 91 2e 01 	lds	r25, 0x012E	; 0x80012e <IndicatorsFacePanelStr+0x3>
    1866:	81 ff       	sbrs	r24, 1
    1868:	02 c0       	rjmp	.+4      	; 0x186e <set_speaker_led_red+0x1e>
    186a:	92 60       	ori	r25, 0x02	; 2
    186c:	01 c0       	rjmp	.+2      	; 0x1870 <set_speaker_led_red+0x20>
    186e:	9d 7f       	andi	r25, 0xFD	; 253
    1870:	90 93 2e 01 	sts	0x012E, r25	; 0x80012e <IndicatorsFacePanelStr+0x3>
    1874:	90 91 2f 01 	lds	r25, 0x012F	; 0x80012f <IndicatorsFacePanelStr+0x4>
    1878:	82 ff       	sbrs	r24, 2
    187a:	02 c0       	rjmp	.+4      	; 0x1880 <set_speaker_led_red+0x30>
    187c:	92 60       	ori	r25, 0x02	; 2
    187e:	01 c0       	rjmp	.+2      	; 0x1882 <set_speaker_led_red+0x32>
    1880:	9d 7f       	andi	r25, 0xFD	; 253
    1882:	90 93 2f 01 	sts	0x012F, r25	; 0x80012f <IndicatorsFacePanelStr+0x4>
    1886:	90 91 2f 01 	lds	r25, 0x012F	; 0x80012f <IndicatorsFacePanelStr+0x4>
    188a:	83 ff       	sbrs	r24, 3
    188c:	02 c0       	rjmp	.+4      	; 0x1892 <set_speaker_led_red+0x42>
    188e:	98 60       	ori	r25, 0x08	; 8
    1890:	01 c0       	rjmp	.+2      	; 0x1894 <set_speaker_led_red+0x44>
    1892:	97 7f       	andi	r25, 0xF7	; 247
    1894:	90 93 2f 01 	sts	0x012F, r25	; 0x80012f <IndicatorsFacePanelStr+0x4>
    1898:	90 91 2f 01 	lds	r25, 0x012F	; 0x80012f <IndicatorsFacePanelStr+0x4>
    189c:	84 ff       	sbrs	r24, 4
    189e:	02 c0       	rjmp	.+4      	; 0x18a4 <set_speaker_led_red+0x54>
    18a0:	90 62       	ori	r25, 0x20	; 32
    18a2:	01 c0       	rjmp	.+2      	; 0x18a6 <set_speaker_led_red+0x56>
    18a4:	9f 7d       	andi	r25, 0xDF	; 223
    18a6:	90 93 2f 01 	sts	0x012F, r25	; 0x80012f <IndicatorsFacePanelStr+0x4>
    18aa:	90 91 2f 01 	lds	r25, 0x012F	; 0x80012f <IndicatorsFacePanelStr+0x4>
    18ae:	85 ff       	sbrs	r24, 5
    18b0:	02 c0       	rjmp	.+4      	; 0x18b6 <set_speaker_led_red+0x66>
    18b2:	90 68       	ori	r25, 0x80	; 128
    18b4:	01 c0       	rjmp	.+2      	; 0x18b8 <set_speaker_led_red+0x68>
    18b6:	9f 77       	andi	r25, 0x7F	; 127
    18b8:	90 93 2f 01 	sts	0x012F, r25	; 0x80012f <IndicatorsFacePanelStr+0x4>
    18bc:	90 91 30 01 	lds	r25, 0x0130	; 0x800130 <IndicatorsFacePanelStr+0x5>
    18c0:	86 ff       	sbrs	r24, 6
    18c2:	02 c0       	rjmp	.+4      	; 0x18c8 <set_speaker_led_red+0x78>
    18c4:	92 60       	ori	r25, 0x02	; 2
    18c6:	01 c0       	rjmp	.+2      	; 0x18ca <set_speaker_led_red+0x7a>
    18c8:	9d 7f       	andi	r25, 0xFD	; 253
    18ca:	90 93 30 01 	sts	0x0130, r25	; 0x800130 <IndicatorsFacePanelStr+0x5>
    18ce:	90 91 32 01 	lds	r25, 0x0132	; 0x800132 <IndicatorsFacePanelStr+0x7>
    18d2:	87 ff       	sbrs	r24, 7
    18d4:	03 c0       	rjmp	.+6      	; 0x18dc <set_speaker_led_red+0x8c>
    18d6:	89 2f       	mov	r24, r25
    18d8:	81 60       	ori	r24, 0x01	; 1
    18da:	02 c0       	rjmp	.+4      	; 0x18e0 <set_speaker_led_red+0x90>
    18dc:	89 2f       	mov	r24, r25
    18de:	8e 7f       	andi	r24, 0xFE	; 254
    18e0:	80 93 32 01 	sts	0x0132, r24	; 0x800132 <IndicatorsFacePanelStr+0x7>
    18e4:	08 95       	ret

000018e6 <read_button_from_face_penel>:
    18e6:	cf 93       	push	r28
    18e8:	df 93       	push	r29
    18ea:	c0 91 87 00 	lds	r28, 0x0087	; 0x800087 <cycle.2254>
    18ee:	c3 30       	cpi	r28, 0x03	; 3
    18f0:	08 f0       	brcs	.+2      	; 0x18f4 <read_button_from_face_penel+0xe>
    18f2:	61 c0       	rjmp	.+194    	; 0x19b6 <read_button_from_face_penel+0xd0>
    18f4:	d0 e0       	ldi	r29, 0x00	; 0
    18f6:	d8 98       	cbi	0x1b, 0	; 27
    18f8:	82 e4       	ldi	r24, 0x42	; 66
    18fa:	0e 94 62 0a 	call	0x14c4	; 0x14c4 <write_byte_to_pt6964>
    18fe:	d2 98       	cbi	0x1a, 2	; 26
    1900:	40 e0       	ldi	r20, 0x00	; 0
    1902:	50 e0       	ldi	r21, 0x00	; 0
    1904:	a1 e0       	ldi	r26, 0x01	; 1
    1906:	b0 e0       	ldi	r27, 0x00	; 0
    1908:	85 e0       	ldi	r24, 0x05	; 5
    190a:	8c 9f       	mul	r24, r28
    190c:	b0 01       	movw	r22, r0
    190e:	8d 9f       	mul	r24, r29
    1910:	70 0d       	add	r23, r0
    1912:	11 24       	eor	r1, r1
    1914:	68 58       	subi	r22, 0x88	; 136
    1916:	7f 4f       	sbci	r23, 0xFF	; 255
    1918:	20 e0       	ldi	r18, 0x00	; 0
    191a:	30 e0       	ldi	r19, 0x00	; 0
    191c:	80 e0       	ldi	r24, 0x00	; 0
    191e:	00 00       	nop
    1920:	d9 98       	cbi	0x1b, 1	; 27
	...
    192a:	fd 01       	movw	r30, r26
    192c:	02 2e       	mov	r0, r18
    192e:	01 c0       	rjmp	.+2      	; 0x1932 <read_button_from_face_penel+0x4c>
    1930:	ee 0f       	add	r30, r30
    1932:	0a 94       	dec	r0
    1934:	ea f7       	brpl	.-6      	; 0x1930 <read_button_from_face_penel+0x4a>
    1936:	ca 9b       	sbis	0x19, 2	; 25
    1938:	03 c0       	rjmp	.+6      	; 0x1940 <read_button_from_face_penel+0x5a>
    193a:	8e 2b       	or	r24, r30
    193c:	00 00       	nop
    193e:	02 c0       	rjmp	.+4      	; 0x1944 <read_button_from_face_penel+0x5e>
    1940:	e0 95       	com	r30
    1942:	8e 23       	and	r24, r30
    1944:	00 00       	nop
    1946:	d9 9a       	sbi	0x1b, 1	; 27
	...
    1954:	00 00       	nop
    1956:	2f 5f       	subi	r18, 0xFF	; 255
    1958:	3f 4f       	sbci	r19, 0xFF	; 255
    195a:	28 30       	cpi	r18, 0x08	; 8
    195c:	31 05       	cpc	r19, r1
    195e:	f9 f6       	brne	.-66     	; 0x191e <read_button_from_face_penel+0x38>
    1960:	fb 01       	movw	r30, r22
    1962:	e4 0f       	add	r30, r20
    1964:	f5 1f       	adc	r31, r21
    1966:	80 83       	st	Z, r24
    1968:	4f 5f       	subi	r20, 0xFF	; 255
    196a:	5f 4f       	sbci	r21, 0xFF	; 255
    196c:	45 30       	cpi	r20, 0x05	; 5
    196e:	51 05       	cpc	r21, r1
    1970:	99 f6       	brne	.-90     	; 0x1918 <read_button_from_face_penel+0x32>
    1972:	da 98       	cbi	0x1b, 2	; 27
    1974:	d2 9a       	sbi	0x1a, 2	; 26
    1976:	d8 9a       	sbi	0x1b, 0	; 27
    1978:	d9 98       	cbi	0x1b, 1	; 27
    197a:	80 91 87 00 	lds	r24, 0x0087	; 0x800087 <cycle.2254>
    197e:	95 e0       	ldi	r25, 0x05	; 5
    1980:	89 9f       	mul	r24, r25
    1982:	f0 01       	movw	r30, r0
    1984:	11 24       	eor	r1, r1
    1986:	e8 58       	subi	r30, 0x88	; 136
    1988:	ff 4f       	sbci	r31, 0xFF	; 255
    198a:	90 81       	ld	r25, Z
    198c:	94 72       	andi	r25, 0x24	; 36
    198e:	61 f4       	brne	.+24     	; 0x19a8 <read_button_from_face_penel+0xc2>
    1990:	91 81       	ldd	r25, Z+1	; 0x01
    1992:	94 72       	andi	r25, 0x24	; 36
    1994:	49 f4       	brne	.+18     	; 0x19a8 <read_button_from_face_penel+0xc2>
    1996:	92 81       	ldd	r25, Z+2	; 0x02
    1998:	94 72       	andi	r25, 0x24	; 36
    199a:	31 f4       	brne	.+12     	; 0x19a8 <read_button_from_face_penel+0xc2>
    199c:	93 81       	ldd	r25, Z+3	; 0x03
    199e:	94 72       	andi	r25, 0x24	; 36
    19a0:	19 f4       	brne	.+6      	; 0x19a8 <read_button_from_face_penel+0xc2>
    19a2:	94 81       	ldd	r25, Z+4	; 0x04
    19a4:	94 72       	andi	r25, 0x24	; 36
    19a6:	19 f0       	breq	.+6      	; 0x19ae <read_button_from_face_penel+0xc8>
    19a8:	10 92 87 00 	sts	0x0087, r1	; 0x800087 <cycle.2254>
    19ac:	1f c0       	rjmp	.+62     	; 0x19ec <read_button_from_face_penel+0x106>
    19ae:	8f 5f       	subi	r24, 0xFF	; 255
    19b0:	80 93 87 00 	sts	0x0087, r24	; 0x800087 <cycle.2254>
    19b4:	1b c0       	rjmp	.+54     	; 0x19ec <read_button_from_face_penel+0x106>
    19b6:	10 92 87 00 	sts	0x0087, r1	; 0x800087 <cycle.2254>
    19ba:	80 e0       	ldi	r24, 0x00	; 0
    19bc:	90 e0       	ldi	r25, 0x00	; 0
    19be:	fc 01       	movw	r30, r24
    19c0:	e8 58       	subi	r30, 0x88	; 136
    19c2:	ff 4f       	sbci	r31, 0xFF	; 255
    19c4:	70 81       	ld	r23, Z
    19c6:	65 81       	ldd	r22, Z+5	; 0x05
    19c8:	45 81       	ldd	r20, Z+5	; 0x05
    19ca:	52 85       	ldd	r21, Z+10	; 0x0a
    19cc:	20 81       	ld	r18, Z
    19ce:	32 85       	ldd	r19, Z+10	; 0x0a
    19d0:	67 23       	and	r22, r23
    19d2:	45 23       	and	r20, r21
    19d4:	46 2b       	or	r20, r22
    19d6:	32 23       	and	r19, r18
    19d8:	24 2f       	mov	r18, r20
    19da:	23 2b       	or	r18, r19
    19dc:	fc 01       	movw	r30, r24
    19de:	e0 5e       	subi	r30, 0xE0	; 224
    19e0:	fe 4f       	sbci	r31, 0xFE	; 254
    19e2:	20 83       	st	Z, r18
    19e4:	01 96       	adiw	r24, 0x01	; 1
    19e6:	85 30       	cpi	r24, 0x05	; 5
    19e8:	91 05       	cpc	r25, r1
    19ea:	49 f7       	brne	.-46     	; 0x19be <read_button_from_face_penel+0xd8>
    19ec:	df 91       	pop	r29
    19ee:	cf 91       	pop	r28
    19f0:	08 95       	ret

000019f2 <get_button>:
    19f2:	84 30       	cpi	r24, 0x04	; 4
    19f4:	31 f0       	breq	.+12     	; 0x1a02 <get_button+0x10>
    19f6:	86 30       	cpi	r24, 0x06	; 6
    19f8:	39 f0       	breq	.+14     	; 0x1a08 <get_button+0x16>
    19fa:	82 30       	cpi	r24, 0x02	; 2
    19fc:	49 f4       	brne	.+18     	; 0x1a10 <get_button+0x1e>
    19fe:	80 e0       	ldi	r24, 0x00	; 0
    1a00:	01 c0       	rjmp	.+2      	; 0x1a04 <get_button+0x12>
    1a02:	81 e0       	ldi	r24, 0x01	; 1
    1a04:	0c 94 7f 0a 	jmp	0x14fe	; 0x14fe <sorting_button_bit.constprop.1>
    1a08:	80 91 24 01 	lds	r24, 0x0124	; 0x800124 <ButtonFacePanelStr+0x4>
    1a0c:	82 71       	andi	r24, 0x12	; 18
    1a0e:	08 95       	ret
    1a10:	80 e0       	ldi	r24, 0x00	; 0
    1a12:	08 95       	ret

00001a14 <toggle_button>:
    1a14:	ff 92       	push	r15
    1a16:	0f 93       	push	r16
    1a18:	1f 93       	push	r17
    1a1a:	cf 93       	push	r28
    1a1c:	df 93       	push	r29
    1a1e:	f8 2e       	mov	r15, r24
    1a20:	0e 94 f9 0c 	call	0x19f2	; 0x19f2 <get_button>
    1a24:	cf 2d       	mov	r28, r15
    1a26:	d0 e0       	ldi	r29, 0x00	; 0
    1a28:	fe 01       	movw	r30, r28
    1a2a:	ed 5d       	subi	r30, 0xDD	; 221
    1a2c:	fe 4f       	sbci	r31, 0xFE	; 254
    1a2e:	81 11       	cpse	r24, r1
    1a30:	0a c0       	rjmp	.+20     	; 0x1a46 <toggle_button+0x32>
    1a32:	10 82       	st	Z, r1
    1a34:	84 e0       	ldi	r24, 0x04	; 4
    1a36:	f8 12       	cpse	r15, r24
    1a38:	1a c0       	rjmp	.+52     	; 0x1a6e <toggle_button+0x5a>
    1a3a:	0e 94 1a 07 	call	0xe34	; 0xe34 <get_blocked_speaker_line>
    1a3e:	fe 01       	movw	r30, r28
    1a40:	ec 5d       	subi	r30, 0xDC	; 220
    1a42:	fe 4f       	sbci	r31, 0xFE	; 254
    1a44:	11 c0       	rjmp	.+34     	; 0x1a68 <toggle_button+0x54>
    1a46:	90 81       	ld	r25, Z
    1a48:	89 17       	cp	r24, r25
    1a4a:	89 f0       	breq	.+34     	; 0x1a6e <toggle_button+0x5a>
    1a4c:	80 83       	st	Z, r24
    1a4e:	8e 01       	movw	r16, r28
    1a50:	0c 5d       	subi	r16, 0xDC	; 220
    1a52:	1e 4f       	sbci	r17, 0xFE	; 254
    1a54:	f8 01       	movw	r30, r16
    1a56:	90 81       	ld	r25, Z
    1a58:	89 27       	eor	r24, r25
    1a5a:	80 83       	st	Z, r24
    1a5c:	f4 e0       	ldi	r31, 0x04	; 4
    1a5e:	ff 12       	cpse	r15, r31
    1a60:	06 c0       	rjmp	.+12     	; 0x1a6e <toggle_button+0x5a>
    1a62:	0e 94 1a 07 	call	0xe34	; 0xe34 <get_blocked_speaker_line>
    1a66:	f8 01       	movw	r30, r16
    1a68:	90 81       	ld	r25, Z
    1a6a:	89 23       	and	r24, r25
    1a6c:	80 83       	st	Z, r24
    1a6e:	cc 5d       	subi	r28, 0xDC	; 220
    1a70:	de 4f       	sbci	r29, 0xFE	; 254
    1a72:	88 81       	ld	r24, Y
    1a74:	df 91       	pop	r29
    1a76:	cf 91       	pop	r28
    1a78:	1f 91       	pop	r17
    1a7a:	0f 91       	pop	r16
    1a7c:	ff 90       	pop	r15
    1a7e:	08 95       	ret

00001a80 <config_parameter_selection>:
    1a80:	85 3a       	cpi	r24, 0xA5	; 165
    1a82:	31 f4       	brne	.+12     	; 0x1a90 <config_parameter_selection+0x10>
    1a84:	10 92 77 00 	sts	0x0077, r1	; 0x800077 <ButtonTemporarySost.2286>
    1a88:	10 92 76 00 	sts	0x0076, r1	; 0x800076 <ButtonSost.2287>
    1a8c:	80 e0       	ldi	r24, 0x00	; 0
    1a8e:	08 95       	ret
    1a90:	84 e0       	ldi	r24, 0x04	; 4
    1a92:	0e 94 f9 0c 	call	0x19f2	; 0x19f2 <get_button>
    1a96:	87 fd       	sbrc	r24, 7
    1a98:	13 c0       	rjmp	.+38     	; 0x1ac0 <config_parameter_selection+0x40>
    1a9a:	80 e0       	ldi	r24, 0x00	; 0
    1a9c:	0e 94 7f 0a 	call	0x14fe	; 0x14fe <sorting_button_bit.constprop.1>
    1aa0:	8f 77       	andi	r24, 0x7F	; 127
    1aa2:	19 f4       	brne	.+6      	; 0x1aaa <config_parameter_selection+0x2a>
    1aa4:	10 92 77 00 	sts	0x0077, r1	; 0x800077 <ButtonTemporarySost.2286>
    1aa8:	08 c0       	rjmp	.+16     	; 0x1aba <config_parameter_selection+0x3a>
    1aaa:	90 91 77 00 	lds	r25, 0x0077	; 0x800077 <ButtonTemporarySost.2286>
    1aae:	89 17       	cp	r24, r25
    1ab0:	21 f0       	breq	.+8      	; 0x1aba <config_parameter_selection+0x3a>
    1ab2:	80 93 77 00 	sts	0x0077, r24	; 0x800077 <ButtonTemporarySost.2286>
    1ab6:	80 93 76 00 	sts	0x0076, r24	; 0x800076 <ButtonSost.2287>
    1aba:	80 91 76 00 	lds	r24, 0x0076	; 0x800076 <ButtonSost.2287>
    1abe:	08 95       	ret
    1ac0:	8f ef       	ldi	r24, 0xFF	; 255
    1ac2:	08 95       	ret

00001ac4 <modification_config_parameter>:
    1ac4:	0f 93       	push	r16
    1ac6:	1f 93       	push	r17
    1ac8:	cf 93       	push	r28
    1aca:	df 93       	push	r29
    1acc:	ec 01       	movw	r28, r24
    1ace:	16 2f       	mov	r17, r22
    1ad0:	04 2f       	mov	r16, r20
    1ad2:	80 91 8b 00 	lds	r24, 0x008B	; 0x80008b <Timer0FlagReg>
    1ad6:	87 ff       	sbrs	r24, 7
    1ad8:	07 c0       	rjmp	.+14     	; 0x1ae8 <modification_config_parameter+0x24>
    1ada:	80 91 8b 00 	lds	r24, 0x008B	; 0x80008b <Timer0FlagReg>
    1ade:	8f 77       	andi	r24, 0x7F	; 127
    1ae0:	80 93 8b 00 	sts	0x008B, r24	; 0x80008b <Timer0FlagReg>
    1ae4:	10 92 75 00 	sts	0x0075, r1	; 0x800075 <ButtonTemporarySost.2297>
    1ae8:	84 e0       	ldi	r24, 0x04	; 4
    1aea:	0e 94 f9 0c 	call	0x19f2	; 0x19f2 <get_button>
    1aee:	81 30       	cpi	r24, 0x01	; 1
    1af0:	19 f0       	breq	.+6      	; 0x1af8 <modification_config_parameter+0x34>
    1af2:	82 30       	cpi	r24, 0x02	; 2
    1af4:	79 f0       	breq	.+30     	; 0x1b14 <modification_config_parameter+0x50>
    1af6:	1d c0       	rjmp	.+58     	; 0x1b32 <modification_config_parameter+0x6e>
    1af8:	80 91 75 00 	lds	r24, 0x0075	; 0x800075 <ButtonTemporarySost.2297>
    1afc:	80 fd       	sbrc	r24, 0
    1afe:	1b c0       	rjmp	.+54     	; 0x1b36 <modification_config_parameter+0x72>
    1b00:	81 60       	ori	r24, 0x01	; 1
    1b02:	80 93 75 00 	sts	0x0075, r24	; 0x800075 <ButtonTemporarySost.2297>
    1b06:	88 81       	ld	r24, Y
    1b08:	18 17       	cp	r17, r24
    1b0a:	10 f4       	brcc	.+4      	; 0x1b10 <modification_config_parameter+0x4c>
    1b0c:	81 50       	subi	r24, 0x01	; 1
    1b0e:	0d c0       	rjmp	.+26     	; 0x1b2a <modification_config_parameter+0x66>
    1b10:	08 83       	st	Y, r16
    1b12:	11 c0       	rjmp	.+34     	; 0x1b36 <modification_config_parameter+0x72>
    1b14:	80 91 75 00 	lds	r24, 0x0075	; 0x800075 <ButtonTemporarySost.2297>
    1b18:	81 fd       	sbrc	r24, 1
    1b1a:	0d c0       	rjmp	.+26     	; 0x1b36 <modification_config_parameter+0x72>
    1b1c:	82 60       	ori	r24, 0x02	; 2
    1b1e:	80 93 75 00 	sts	0x0075, r24	; 0x800075 <ButtonTemporarySost.2297>
    1b22:	88 81       	ld	r24, Y
    1b24:	80 17       	cp	r24, r16
    1b26:	18 f4       	brcc	.+6      	; 0x1b2e <modification_config_parameter+0x6a>
    1b28:	8f 5f       	subi	r24, 0xFF	; 255
    1b2a:	88 83       	st	Y, r24
    1b2c:	04 c0       	rjmp	.+8      	; 0x1b36 <modification_config_parameter+0x72>
    1b2e:	18 83       	st	Y, r17
    1b30:	02 c0       	rjmp	.+4      	; 0x1b36 <modification_config_parameter+0x72>
    1b32:	10 92 75 00 	sts	0x0075, r1	; 0x800075 <ButtonTemporarySost.2297>
    1b36:	df 91       	pop	r29
    1b38:	cf 91       	pop	r28
    1b3a:	1f 91       	pop	r17
    1b3c:	0f 91       	pop	r16
    1b3e:	08 95       	ret

00001b40 <spi_init>:
    1b40:	87 b3       	in	r24, 0x17	; 23
    1b42:	80 6b       	ori	r24, 0xB0	; 176
    1b44:	87 bb       	out	0x17, r24	; 23
    1b46:	88 b3       	in	r24, 0x18	; 24
    1b48:	80 6e       	ori	r24, 0xE0	; 224
    1b4a:	88 bb       	out	0x18, r24	; 24
    1b4c:	c4 98       	cbi	0x18, 4	; 24
    1b4e:	82 e5       	ldi	r24, 0x52	; 82
    1b50:	8d b9       	out	0x0d, r24	; 13
    1b52:	1e b8       	out	0x0e, r1	; 14
    1b54:	08 95       	ret

00001b56 <spi_write_array>:
    1b56:	cf 93       	push	r28
    1b58:	df 93       	push	r29
    1b5a:	1f 92       	push	r1
    1b5c:	cd b7       	in	r28, 0x3d	; 61
    1b5e:	de b7       	in	r29, 0x3e	; 62
    1b60:	19 82       	std	Y+1, r1	; 0x01
    1b62:	c4 98       	cbi	0x18, 4	; 24
    1b64:	fb 01       	movw	r30, r22
    1b66:	88 23       	and	r24, r24
    1b68:	71 f0       	breq	.+28     	; 0x1b86 <spi_write_array+0x30>
    1b6a:	c0 98       	cbi	0x18, 0	; 24
    1b6c:	95 e3       	ldi	r25, 0x35	; 53
    1b6e:	9a 95       	dec	r25
    1b70:	f1 f7       	brne	.-4      	; 0x1b6e <spi_write_array+0x18>
    1b72:	00 00       	nop
    1b74:	c0 9a       	sbi	0x18, 0	; 24
    1b76:	91 91       	ld	r25, Z+
    1b78:	9f b9       	out	0x0f, r25	; 15
    1b7a:	77 9b       	sbis	0x0e, 7	; 14
    1b7c:	fe cf       	rjmp	.-4      	; 0x1b7a <spi_write_array+0x24>
    1b7e:	9f b1       	in	r25, 0x0f	; 15
    1b80:	99 83       	std	Y+1, r25	; 0x01
    1b82:	81 50       	subi	r24, 0x01	; 1
    1b84:	f0 cf       	rjmp	.-32     	; 0x1b66 <spi_write_array+0x10>
    1b86:	c4 9a       	sbi	0x18, 4	; 24
    1b88:	c4 98       	cbi	0x18, 4	; 24
    1b8a:	89 81       	ldd	r24, Y+1	; 0x01
    1b8c:	80 95       	com	r24
    1b8e:	0f 90       	pop	r0
    1b90:	df 91       	pop	r29
    1b92:	cf 91       	pop	r28
    1b94:	08 95       	ret

00001b96 <timers_init>:
    1b96:	84 e6       	ldi	r24, 0x64	; 100
    1b98:	80 93 3e 01 	sts	0x013E, r24	; 0x80013e <Timer0CountersStr+0x8>
    1b9c:	86 ef       	ldi	r24, 0xF6	; 246
    1b9e:	8d bd       	out	0x2d, r24	; 45
    1ba0:	8b e3       	ldi	r24, 0x3B	; 59
    1ba2:	8c bd       	out	0x2c, r24	; 44
    1ba4:	8e b5       	in	r24, 0x2e	; 46
    1ba6:	83 60       	ori	r24, 0x03	; 3
    1ba8:	8e bd       	out	0x2e, r24	; 46
    1baa:	86 e0       	ldi	r24, 0x06	; 6
    1bac:	82 bf       	out	0x32, r24	; 50
    1bae:	83 b7       	in	r24, 0x33	; 51
    1bb0:	83 60       	ori	r24, 0x03	; 3
    1bb2:	83 bf       	out	0x33, r24	; 51
    1bb4:	89 b7       	in	r24, 0x39	; 57
    1bb6:	85 60       	ori	r24, 0x05	; 5
    1bb8:	89 bf       	out	0x39, r24	; 57
    1bba:	08 95       	ret

00001bbc <get_hour_counter>:
    1bbc:	80 91 39 01 	lds	r24, 0x0139	; 0x800139 <Timer0CountersStr+0x3>
    1bc0:	08 95       	ret

00001bc2 <clear_hour_counter>:
    1bc2:	f8 94       	cli
    1bc4:	10 92 39 01 	sts	0x0139, r1	; 0x800139 <Timer0CountersStr+0x3>
    1bc8:	78 94       	sei
    1bca:	08 95       	ret

00001bcc <clear_charge_hour_counter>:
    1bcc:	f8 94       	cli
    1bce:	10 92 38 01 	sts	0x0138, r1	; 0x800138 <Timer0CountersStr+0x2>
    1bd2:	78 94       	sei
    1bd4:	08 95       	ret

00001bd6 <ms_delay>:
    1bd6:	cf 93       	push	r28
    1bd8:	df 93       	push	r29
    1bda:	00 d0       	rcall	.+0      	; 0x1bdc <ms_delay+0x6>
    1bdc:	cd b7       	in	r28, 0x3d	; 61
    1bde:	de b7       	in	r29, 0x3e	; 62
    1be0:	9a 83       	std	Y+2, r25	; 0x02
    1be2:	89 83       	std	Y+1, r24	; 0x01
    1be4:	89 81       	ldd	r24, Y+1	; 0x01
    1be6:	9a 81       	ldd	r25, Y+2	; 0x02
    1be8:	89 2b       	or	r24, r25
    1bea:	79 f0       	breq	.+30     	; 0x1c0a <ms_delay+0x34>
    1bec:	f8 94       	cli
    1bee:	10 92 45 01 	sts	0x0145, r1	; 0x800145 <Timer0CountersStr+0xf>
    1bf2:	10 92 44 01 	sts	0x0144, r1	; 0x800144 <Timer0CountersStr+0xe>
    1bf6:	78 94       	sei
    1bf8:	20 91 44 01 	lds	r18, 0x0144	; 0x800144 <Timer0CountersStr+0xe>
    1bfc:	30 91 45 01 	lds	r19, 0x0145	; 0x800145 <Timer0CountersStr+0xf>
    1c00:	89 81       	ldd	r24, Y+1	; 0x01
    1c02:	9a 81       	ldd	r25, Y+2	; 0x02
    1c04:	28 17       	cp	r18, r24
    1c06:	39 07       	cpc	r19, r25
    1c08:	b9 f7       	brne	.-18     	; 0x1bf8 <ms_delay+0x22>
    1c0a:	0f 90       	pop	r0
    1c0c:	0f 90       	pop	r0
    1c0e:	df 91       	pop	r29
    1c10:	cf 91       	pop	r28
    1c12:	08 95       	ret

00001c14 <__vector_9>:
    1c14:	1f 92       	push	r1
    1c16:	0f 92       	push	r0
    1c18:	0f b6       	in	r0, 0x3f	; 63
    1c1a:	0f 92       	push	r0
    1c1c:	11 24       	eor	r1, r1
    1c1e:	2f 93       	push	r18
    1c20:	3f 93       	push	r19
    1c22:	4f 93       	push	r20
    1c24:	5f 93       	push	r21
    1c26:	6f 93       	push	r22
    1c28:	7f 93       	push	r23
    1c2a:	8f 93       	push	r24
    1c2c:	9f 93       	push	r25
    1c2e:	af 93       	push	r26
    1c30:	bf 93       	push	r27
    1c32:	ef 93       	push	r30
    1c34:	ff 93       	push	r31
    1c36:	86 ef       	ldi	r24, 0xF6	; 246
    1c38:	8d bd       	out	0x2d, r24	; 45
    1c3a:	8b e3       	ldi	r24, 0x3B	; 59
    1c3c:	8c bd       	out	0x2c, r24	; 44
    1c3e:	a8 95       	wdr
    1c40:	80 91 41 01 	lds	r24, 0x0141	; 0x800141 <Timer0CountersStr+0xb>
    1c44:	8f 5f       	subi	r24, 0xFF	; 255
    1c46:	80 93 41 01 	sts	0x0141, r24	; 0x800141 <Timer0CountersStr+0xb>
    1c4a:	8c 30       	cpi	r24, 0x0C	; 12
    1c4c:	38 f0       	brcs	.+14     	; 0x1c5c <__vector_9+0x48>
    1c4e:	10 92 41 01 	sts	0x0141, r1	; 0x800141 <Timer0CountersStr+0xb>
    1c52:	80 91 88 00 	lds	r24, 0x0088	; 0x800088 <Timer1FastBlinkReg>
    1c56:	80 95       	com	r24
    1c58:	80 93 88 00 	sts	0x0088, r24	; 0x800088 <Timer1FastBlinkReg>
    1c5c:	80 91 40 01 	lds	r24, 0x0140	; 0x800140 <Timer0CountersStr+0xa>
    1c60:	8f 5f       	subi	r24, 0xFF	; 255
    1c62:	80 93 40 01 	sts	0x0140, r24	; 0x800140 <Timer0CountersStr+0xa>
    1c66:	82 33       	cpi	r24, 0x32	; 50
    1c68:	08 f4       	brcc	.+2      	; 0x1c6c <__vector_9+0x58>
    1c6a:	67 c0       	rjmp	.+206    	; 0x1d3a <__vector_9+0x126>
    1c6c:	10 92 40 01 	sts	0x0140, r1	; 0x800140 <Timer0CountersStr+0xa>
    1c70:	80 91 89 00 	lds	r24, 0x0089	; 0x800089 <Timer1BlinkReg>
    1c74:	80 95       	com	r24
    1c76:	80 93 89 00 	sts	0x0089, r24	; 0x800089 <Timer1BlinkReg>
    1c7a:	80 91 36 01 	lds	r24, 0x0136	; 0x800136 <Timer0CountersStr>
    1c7e:	8f 5f       	subi	r24, 0xFF	; 255
    1c80:	80 93 36 01 	sts	0x0136, r24	; 0x800136 <Timer0CountersStr>
    1c84:	8e 31       	cpi	r24, 0x1E	; 30
    1c86:	78 f1       	brcs	.+94     	; 0x1ce6 <__vector_9+0xd2>
    1c88:	10 92 36 01 	sts	0x0136, r1	; 0x800136 <Timer0CountersStr>
    1c8c:	80 91 8b 00 	lds	r24, 0x008B	; 0x80008b <Timer0FlagReg>
    1c90:	81 60       	ori	r24, 0x01	; 1
    1c92:	80 93 8b 00 	sts	0x008B, r24	; 0x80008b <Timer0FlagReg>
    1c96:	80 91 8b 00 	lds	r24, 0x008B	; 0x80008b <Timer0FlagReg>
    1c9a:	8f 7d       	andi	r24, 0xDF	; 223
    1c9c:	80 93 8b 00 	sts	0x008B, r24	; 0x80008b <Timer0FlagReg>
    1ca0:	80 91 37 01 	lds	r24, 0x0137	; 0x800137 <Timer0CountersStr+0x1>
    1ca4:	8f 5f       	subi	r24, 0xFF	; 255
    1ca6:	80 93 37 01 	sts	0x0137, r24	; 0x800137 <Timer0CountersStr+0x1>
    1caa:	80 3f       	cpi	r24, 0xF0	; 240
    1cac:	70 f0       	brcs	.+28     	; 0x1cca <__vector_9+0xb6>
    1cae:	10 92 37 01 	sts	0x0137, r1	; 0x800137 <Timer0CountersStr+0x1>
    1cb2:	80 91 39 01 	lds	r24, 0x0139	; 0x800139 <Timer0CountersStr+0x3>
    1cb6:	8f 5f       	subi	r24, 0xFF	; 255
    1cb8:	80 93 39 01 	sts	0x0139, r24	; 0x800139 <Timer0CountersStr+0x3>
    1cbc:	80 91 39 01 	lds	r24, 0x0139	; 0x800139 <Timer0CountersStr+0x3>
    1cc0:	89 31       	cpi	r24, 0x19	; 25
    1cc2:	18 f0       	brcs	.+6      	; 0x1cca <__vector_9+0xb6>
    1cc4:	88 e1       	ldi	r24, 0x18	; 24
    1cc6:	80 93 39 01 	sts	0x0139, r24	; 0x800139 <Timer0CountersStr+0x3>
    1cca:	80 91 38 01 	lds	r24, 0x0138	; 0x800138 <Timer0CountersStr+0x2>
    1cce:	8f 5f       	subi	r24, 0xFF	; 255
    1cd0:	80 93 38 01 	sts	0x0138, r24	; 0x800138 <Timer0CountersStr+0x2>
    1cd4:	8a 30       	cpi	r24, 0x0A	; 10
    1cd6:	38 f0       	brcs	.+14     	; 0x1ce6 <__vector_9+0xd2>
    1cd8:	10 92 38 01 	sts	0x0138, r1	; 0x800138 <Timer0CountersStr+0x2>
    1cdc:	80 91 8b 00 	lds	r24, 0x008B	; 0x80008b <Timer0FlagReg>
    1ce0:	8f 7b       	andi	r24, 0xBF	; 191
    1ce2:	80 93 8b 00 	sts	0x008B, r24	; 0x80008b <Timer0FlagReg>
    1ce6:	80 91 8b 00 	lds	r24, 0x008B	; 0x80008b <Timer0FlagReg>
    1cea:	83 ff       	sbrs	r24, 3
    1cec:	0e c0       	rjmp	.+28     	; 0x1d0a <__vector_9+0xf6>
    1cee:	80 91 3a 01 	lds	r24, 0x013A	; 0x80013a <Timer0CountersStr+0x4>
    1cf2:	8f 5f       	subi	r24, 0xFF	; 255
    1cf4:	80 93 3a 01 	sts	0x013A, r24	; 0x80013a <Timer0CountersStr+0x4>
    1cf8:	86 30       	cpi	r24, 0x06	; 6
    1cfa:	38 f0       	brcs	.+14     	; 0x1d0a <__vector_9+0xf6>
    1cfc:	10 92 3a 01 	sts	0x013A, r1	; 0x80013a <Timer0CountersStr+0x4>
    1d00:	80 91 8b 00 	lds	r24, 0x008B	; 0x80008b <Timer0FlagReg>
    1d04:	87 7f       	andi	r24, 0xF7	; 247
    1d06:	80 93 8b 00 	sts	0x008B, r24	; 0x80008b <Timer0FlagReg>
    1d0a:	80 91 8b 00 	lds	r24, 0x008B	; 0x80008b <Timer0FlagReg>
    1d0e:	84 ff       	sbrs	r24, 4
    1d10:	14 c0       	rjmp	.+40     	; 0x1d3a <__vector_9+0x126>
    1d12:	90 91 89 00 	lds	r25, 0x0089	; 0x800089 <Timer1BlinkReg>
    1d16:	80 91 34 01 	lds	r24, 0x0134	; 0x800134 <IndicatorsFacePanelStr+0x9>
    1d1a:	90 fb       	bst	r25, 0
    1d1c:	80 f9       	bld	r24, 0
    1d1e:	80 93 34 01 	sts	0x0134, r24	; 0x800134 <IndicatorsFacePanelStr+0x9>
    1d22:	0e 94 af 04 	call	0x95e	; 0x95e <get_charge_indication>
    1d26:	88 23       	and	r24, r24
    1d28:	41 f0       	breq	.+16     	; 0x1d3a <__vector_9+0x126>
    1d2a:	90 91 89 00 	lds	r25, 0x0089	; 0x800089 <Timer1BlinkReg>
    1d2e:	80 91 34 01 	lds	r24, 0x0134	; 0x800134 <IndicatorsFacePanelStr+0x9>
    1d32:	90 fb       	bst	r25, 0
    1d34:	81 f9       	bld	r24, 1
    1d36:	80 93 34 01 	sts	0x0134, r24	; 0x800134 <IndicatorsFacePanelStr+0x9>
    1d3a:	80 91 8b 00 	lds	r24, 0x008B	; 0x80008b <Timer0FlagReg>
    1d3e:	81 fd       	sbrc	r24, 1
    1d40:	11 c0       	rjmp	.+34     	; 0x1d64 <__vector_9+0x150>
    1d42:	0e 94 39 08 	call	0x1072	; 0x1072 <resistence_all_line_indicate>
    1d46:	0e 94 af 04 	call	0x95e	; 0x95e <get_charge_indication>
    1d4a:	90 91 89 00 	lds	r25, 0x0089	; 0x800089 <Timer1BlinkReg>
    1d4e:	89 23       	and	r24, r25
    1d50:	49 f0       	breq	.+18     	; 0x1d64 <__vector_9+0x150>
    1d52:	80 91 8b 00 	lds	r24, 0x008B	; 0x80008b <Timer0FlagReg>
    1d56:	83 fd       	sbrc	r24, 3
    1d58:	05 c0       	rjmp	.+10     	; 0x1d64 <__vector_9+0x150>
    1d5a:	0e 94 af 04 	call	0x95e	; 0x95e <get_charge_indication>
    1d5e:	90 e0       	ldi	r25, 0x00	; 0
    1d60:	0e 94 ec 0a 	call	0x15d8	; 0x15d8 <display_set>
    1d64:	78 94       	sei
    1d66:	0e 94 b7 0a 	call	0x156e	; 0x156e <write_data_to_face_penel>
    1d6a:	0e 94 73 0c 	call	0x18e6	; 0x18e6 <read_button_from_face_penel>
    1d6e:	f8 94       	cli
    1d70:	80 91 24 01 	lds	r24, 0x0124	; 0x800124 <ButtonFacePanelStr+0x4>
    1d74:	84 ff       	sbrs	r24, 4
    1d76:	0d c0       	rjmp	.+26     	; 0x1d92 <__vector_9+0x17e>
    1d78:	80 91 3b 01 	lds	r24, 0x013B	; 0x80013b <Timer0CountersStr+0x5>
    1d7c:	90 91 3c 01 	lds	r25, 0x013C	; 0x80013c <Timer0CountersStr+0x6>
    1d80:	01 96       	adiw	r24, 0x01	; 1
    1d82:	90 93 3c 01 	sts	0x013C, r25	; 0x80013c <Timer0CountersStr+0x6>
    1d86:	80 93 3b 01 	sts	0x013B, r24	; 0x80013b <Timer0CountersStr+0x5>
    1d8a:	8c 32       	cpi	r24, 0x2C	; 44
    1d8c:	91 40       	sbci	r25, 0x01	; 1
    1d8e:	58 f4       	brcc	.+22     	; 0x1da6 <__vector_9+0x192>
    1d90:	32 c0       	rjmp	.+100    	; 0x1df6 <__vector_9+0x1e2>
    1d92:	82 e0       	ldi	r24, 0x02	; 2
    1d94:	0e 94 f9 0c 	call	0x19f2	; 0x19f2 <get_button>
    1d98:	81 11       	cpse	r24, r1
    1d9a:	ee cf       	rjmp	.-36     	; 0x1d78 <__vector_9+0x164>
    1d9c:	10 92 3c 01 	sts	0x013C, r1	; 0x80013c <Timer0CountersStr+0x6>
    1da0:	10 92 3b 01 	sts	0x013B, r1	; 0x80013b <Timer0CountersStr+0x5>
    1da4:	28 c0       	rjmp	.+80     	; 0x1df6 <__vector_9+0x1e2>
    1da6:	80 91 24 01 	lds	r24, 0x0124	; 0x800124 <ButtonFacePanelStr+0x4>
    1daa:	84 ff       	sbrs	r24, 4
    1dac:	12 c0       	rjmp	.+36     	; 0x1dd2 <__vector_9+0x1be>
    1dae:	80 91 3b 01 	lds	r24, 0x013B	; 0x80013b <Timer0CountersStr+0x5>
    1db2:	90 91 3c 01 	lds	r25, 0x013C	; 0x80013c <Timer0CountersStr+0x6>
    1db6:	84 3f       	cpi	r24, 0xF4	; 244
    1db8:	91 40       	sbci	r25, 0x01	; 1
    1dba:	e8 f0       	brcs	.+58     	; 0x1df6 <__vector_9+0x1e2>
    1dbc:	10 92 3c 01 	sts	0x013C, r1	; 0x80013c <Timer0CountersStr+0x6>
    1dc0:	10 92 3b 01 	sts	0x013B, r1	; 0x80013b <Timer0CountersStr+0x5>
    1dc4:	90 91 8b 00 	lds	r25, 0x008B	; 0x80008b <Timer0FlagReg>
    1dc8:	82 e0       	ldi	r24, 0x02	; 2
    1dca:	89 27       	eor	r24, r25
    1dcc:	80 93 8b 00 	sts	0x008B, r24	; 0x80008b <Timer0FlagReg>
    1dd0:	12 c0       	rjmp	.+36     	; 0x1df6 <__vector_9+0x1e2>
    1dd2:	10 92 3c 01 	sts	0x013C, r1	; 0x80013c <Timer0CountersStr+0x6>
    1dd6:	10 92 3b 01 	sts	0x013B, r1	; 0x80013b <Timer0CountersStr+0x5>
    1dda:	80 91 8b 00 	lds	r24, 0x008B	; 0x80008b <Timer0FlagReg>
    1dde:	84 60       	ori	r24, 0x04	; 4
    1de0:	80 93 8b 00 	sts	0x008B, r24	; 0x80008b <Timer0FlagReg>
    1de4:	80 91 8b 00 	lds	r24, 0x008B	; 0x80008b <Timer0FlagReg>
    1de8:	8e 7f       	andi	r24, 0xFE	; 254
    1dea:	80 93 8b 00 	sts	0x008B, r24	; 0x80008b <Timer0FlagReg>
    1dee:	10 92 36 01 	sts	0x0136, r1	; 0x800136 <Timer0CountersStr>
    1df2:	10 92 37 01 	sts	0x0137, r1	; 0x800137 <Timer0CountersStr+0x1>
    1df6:	86 e0       	ldi	r24, 0x06	; 6
    1df8:	0e 94 0a 0d 	call	0x1a14	; 0x1a14 <toggle_button>
    1dfc:	84 ff       	sbrs	r24, 4
    1dfe:	1b c0       	rjmp	.+54     	; 0x1e36 <__vector_9+0x222>
    1e00:	84 e0       	ldi	r24, 0x04	; 4
    1e02:	0e 94 f9 0c 	call	0x19f2	; 0x19f2 <get_button>
    1e06:	88 23       	and	r24, r24
    1e08:	a1 f0       	breq	.+40     	; 0x1e32 <__vector_9+0x21e>
    1e0a:	80 91 3f 01 	lds	r24, 0x013F	; 0x80013f <Timer0CountersStr+0x9>
    1e0e:	8f 5f       	subi	r24, 0xFF	; 255
    1e10:	80 93 3f 01 	sts	0x013F, r24	; 0x80013f <Timer0CountersStr+0x9>
    1e14:	80 91 3f 01 	lds	r24, 0x013F	; 0x80013f <Timer0CountersStr+0x9>
    1e18:	84 36       	cpi	r24, 0x64	; 100
    1e1a:	68 f0       	brcs	.+26     	; 0x1e36 <__vector_9+0x222>
    1e1c:	10 92 3f 01 	sts	0x013F, r1	; 0x80013f <Timer0CountersStr+0x9>
    1e20:	84 e0       	ldi	r24, 0x04	; 4
    1e22:	0e 94 f9 0c 	call	0x19f2	; 0x19f2 <get_button>
    1e26:	90 91 62 00 	lds	r25, 0x0062	; 0x800062 <Timer1EMSelectZone>
    1e2a:	89 27       	eor	r24, r25
    1e2c:	80 93 62 00 	sts	0x0062, r24	; 0x800062 <Timer1EMSelectZone>
    1e30:	02 c0       	rjmp	.+4      	; 0x1e36 <__vector_9+0x222>
    1e32:	10 92 3f 01 	sts	0x013F, r1	; 0x80013f <Timer0CountersStr+0x9>
    1e36:	80 91 8b 00 	lds	r24, 0x008B	; 0x80008b <Timer0FlagReg>
    1e3a:	81 ff       	sbrs	r24, 1
    1e3c:	3d c0       	rjmp	.+122    	; 0x1eb8 <__vector_9+0x2a4>
    1e3e:	84 e0       	ldi	r24, 0x04	; 4
    1e40:	0e 94 f9 0c 	call	0x19f2	; 0x19f2 <get_button>
    1e44:	81 11       	cpse	r24, r1
    1e46:	04 c0       	rjmp	.+8      	; 0x1e50 <__vector_9+0x23c>
    1e48:	80 91 24 01 	lds	r24, 0x0124	; 0x800124 <ButtonFacePanelStr+0x4>
    1e4c:	81 ff       	sbrs	r24, 1
    1e4e:	2f c0       	rjmp	.+94     	; 0x1eae <__vector_9+0x29a>
    1e50:	80 91 3d 01 	lds	r24, 0x013D	; 0x80013d <Timer0CountersStr+0x7>
    1e54:	8f 5f       	subi	r24, 0xFF	; 255
    1e56:	80 93 3d 01 	sts	0x013D, r24	; 0x80013d <Timer0CountersStr+0x7>
    1e5a:	90 91 3d 01 	lds	r25, 0x013D	; 0x80013d <Timer0CountersStr+0x7>
    1e5e:	80 91 3e 01 	lds	r24, 0x013E	; 0x80013e <Timer0CountersStr+0x8>
    1e62:	98 17       	cp	r25, r24
    1e64:	78 f0       	brcs	.+30     	; 0x1e84 <__vector_9+0x270>
    1e66:	84 e0       	ldi	r24, 0x04	; 4
    1e68:	0e 94 f9 0c 	call	0x19f2	; 0x19f2 <get_button>
    1e6c:	88 23       	and	r24, r24
    1e6e:	51 f0       	breq	.+20     	; 0x1e84 <__vector_9+0x270>
    1e70:	10 92 3d 01 	sts	0x013D, r1	; 0x80013d <Timer0CountersStr+0x7>
    1e74:	89 e0       	ldi	r24, 0x09	; 9
    1e76:	80 93 3e 01 	sts	0x013E, r24	; 0x80013e <Timer0CountersStr+0x8>
    1e7a:	80 91 8b 00 	lds	r24, 0x008B	; 0x80008b <Timer0FlagReg>
    1e7e:	80 68       	ori	r24, 0x80	; 128
    1e80:	80 93 8b 00 	sts	0x008B, r24	; 0x80008b <Timer0FlagReg>
    1e84:	80 91 3d 01 	lds	r24, 0x013D	; 0x80013d <Timer0CountersStr+0x7>
    1e88:	8f 3f       	cpi	r24, 0xFF	; 255
    1e8a:	b1 f4       	brne	.+44     	; 0x1eb8 <__vector_9+0x2a4>
    1e8c:	90 91 24 01 	lds	r25, 0x0124	; 0x800124 <ButtonFacePanelStr+0x4>
    1e90:	96 95       	lsr	r25
    1e92:	91 70       	andi	r25, 0x01	; 1
    1e94:	80 91 24 01 	lds	r24, 0x0124	; 0x800124 <ButtonFacePanelStr+0x4>
    1e98:	82 95       	swap	r24
    1e9a:	81 70       	andi	r24, 0x01	; 1
    1e9c:	89 17       	cp	r24, r25
    1e9e:	60 f4       	brcc	.+24     	; 0x1eb8 <__vector_9+0x2a4>
    1ea0:	90 91 8a 00 	lds	r25, 0x008A	; 0x80008a <Timer0FlagReg2>
    1ea4:	88 e0       	ldi	r24, 0x08	; 8
    1ea6:	89 27       	eor	r24, r25
    1ea8:	80 93 8a 00 	sts	0x008A, r24	; 0x80008a <Timer0FlagReg2>
    1eac:	05 c0       	rjmp	.+10     	; 0x1eb8 <__vector_9+0x2a4>
    1eae:	10 92 3d 01 	sts	0x013D, r1	; 0x80013d <Timer0CountersStr+0x7>
    1eb2:	84 e6       	ldi	r24, 0x64	; 100
    1eb4:	80 93 3e 01 	sts	0x013E, r24	; 0x80013e <Timer0CountersStr+0x8>
    1eb8:	80 91 35 01 	lds	r24, 0x0135	; 0x800135 <IndicatorsFacePanelStr+0xa>
    1ebc:	cb 9b       	sbis	0x19, 3	; 25
    1ebe:	02 c0       	rjmp	.+4      	; 0x1ec4 <__vector_9+0x2b0>
    1ec0:	8e 7f       	andi	r24, 0xFE	; 254
    1ec2:	01 c0       	rjmp	.+2      	; 0x1ec6 <__vector_9+0x2b2>
    1ec4:	81 60       	ori	r24, 0x01	; 1
    1ec6:	80 93 35 01 	sts	0x0135, r24	; 0x800135 <IndicatorsFacePanelStr+0xa>
    1eca:	80 91 8a 00 	lds	r24, 0x008A	; 0x80008a <Timer0FlagReg2>
    1ece:	81 fd       	sbrc	r24, 1
    1ed0:	0e 94 58 11 	call	0x22b0	; 0x22b0 <usart_cycle_count_modify>
    1ed4:	80 91 8a 00 	lds	r24, 0x008A	; 0x80008a <Timer0FlagReg2>
    1ed8:	80 fd       	sbrc	r24, 0
    1eda:	0e 94 83 11 	call	0x2306	; 0x2306 <rs485_protocol>
    1ede:	ff 91       	pop	r31
    1ee0:	ef 91       	pop	r30
    1ee2:	bf 91       	pop	r27
    1ee4:	af 91       	pop	r26
    1ee6:	9f 91       	pop	r25
    1ee8:	8f 91       	pop	r24
    1eea:	7f 91       	pop	r23
    1eec:	6f 91       	pop	r22
    1eee:	5f 91       	pop	r21
    1ef0:	4f 91       	pop	r20
    1ef2:	3f 91       	pop	r19
    1ef4:	2f 91       	pop	r18
    1ef6:	0f 90       	pop	r0
    1ef8:	0f be       	out	0x3f, r0	; 63
    1efa:	0f 90       	pop	r0
    1efc:	1f 90       	pop	r1
    1efe:	18 95       	reti

00001f00 <__vector_11>:
    1f00:	1f 92       	push	r1
    1f02:	0f 92       	push	r0
    1f04:	0f b6       	in	r0, 0x3f	; 63
    1f06:	0f 92       	push	r0
    1f08:	11 24       	eor	r1, r1
    1f0a:	2f 93       	push	r18
    1f0c:	3f 93       	push	r19
    1f0e:	4f 93       	push	r20
    1f10:	5f 93       	push	r21
    1f12:	6f 93       	push	r22
    1f14:	7f 93       	push	r23
    1f16:	8f 93       	push	r24
    1f18:	9f 93       	push	r25
    1f1a:	af 93       	push	r26
    1f1c:	bf 93       	push	r27
    1f1e:	ef 93       	push	r30
    1f20:	ff 93       	push	r31
    1f22:	86 e0       	ldi	r24, 0x06	; 6
    1f24:	82 bf       	out	0x32, r24	; 50
    1f26:	80 91 44 01 	lds	r24, 0x0144	; 0x800144 <Timer0CountersStr+0xe>
    1f2a:	90 91 45 01 	lds	r25, 0x0145	; 0x800145 <Timer0CountersStr+0xf>
    1f2e:	01 96       	adiw	r24, 0x01	; 1
    1f30:	90 93 45 01 	sts	0x0145, r25	; 0x800145 <Timer0CountersStr+0xf>
    1f34:	80 93 44 01 	sts	0x0144, r24	; 0x800144 <Timer0CountersStr+0xe>
    1f38:	80 91 8a 00 	lds	r24, 0x008A	; 0x80008a <Timer0FlagReg2>
    1f3c:	82 ff       	sbrs	r24, 2
    1f3e:	07 c0       	rjmp	.+14     	; 0x1f4e <__vector_11+0x4e>
    1f40:	80 91 8a 00 	lds	r24, 0x008A	; 0x80008a <Timer0FlagReg2>
    1f44:	8b 7f       	andi	r24, 0xFB	; 251
    1f46:	80 93 8a 00 	sts	0x008A, r24	; 0x80008a <Timer0FlagReg2>
    1f4a:	0e 94 9f 12 	call	0x253e	; 0x253e <send_request_from_RA2>
    1f4e:	83 9b       	sbis	0x10, 3	; 16
    1f50:	0a c0       	rjmp	.+20     	; 0x1f66 <__vector_11+0x66>
    1f52:	80 91 42 01 	lds	r24, 0x0142	; 0x800142 <Timer0CountersStr+0xc>
    1f56:	8f 5f       	subi	r24, 0xFF	; 255
    1f58:	80 93 42 01 	sts	0x0142, r24	; 0x800142 <Timer0CountersStr+0xc>
    1f5c:	8f 30       	cpi	r24, 0x0F	; 15
    1f5e:	19 f4       	brne	.+6      	; 0x1f66 <__vector_11+0x66>
    1f60:	93 98       	cbi	0x12, 3	; 18
    1f62:	10 92 42 01 	sts	0x0142, r1	; 0x800142 <Timer0CountersStr+0xc>
    1f66:	84 9b       	sbis	0x10, 4	; 16
    1f68:	0a c0       	rjmp	.+20     	; 0x1f7e <__vector_11+0x7e>
    1f6a:	80 91 43 01 	lds	r24, 0x0143	; 0x800143 <Timer0CountersStr+0xd>
    1f6e:	8f 5f       	subi	r24, 0xFF	; 255
    1f70:	80 93 43 01 	sts	0x0143, r24	; 0x800143 <Timer0CountersStr+0xd>
    1f74:	8f 30       	cpi	r24, 0x0F	; 15
    1f76:	19 f4       	brne	.+6      	; 0x1f7e <__vector_11+0x7e>
    1f78:	94 98       	cbi	0x12, 4	; 18
    1f7a:	10 92 43 01 	sts	0x0143, r1	; 0x800143 <Timer0CountersStr+0xd>
    1f7e:	ff 91       	pop	r31
    1f80:	ef 91       	pop	r30
    1f82:	bf 91       	pop	r27
    1f84:	af 91       	pop	r26
    1f86:	9f 91       	pop	r25
    1f88:	8f 91       	pop	r24
    1f8a:	7f 91       	pop	r23
    1f8c:	6f 91       	pop	r22
    1f8e:	5f 91       	pop	r21
    1f90:	4f 91       	pop	r20
    1f92:	3f 91       	pop	r19
    1f94:	2f 91       	pop	r18
    1f96:	0f 90       	pop	r0
    1f98:	0f be       	out	0x3f, r0	; 63
    1f9a:	0f 90       	pop	r0
    1f9c:	1f 90       	pop	r1
    1f9e:	18 95       	reti

00001fa0 <crc8_calculation>:
    1fa0:	fc 01       	movw	r30, r24
    1fa2:	9f ef       	ldi	r25, 0xFF	; 255
    1fa4:	81 e3       	ldi	r24, 0x31	; 49
    1fa6:	61 50       	subi	r22, 0x01	; 1
    1fa8:	60 f0       	brcs	.+24     	; 0x1fc2 <crc8_calculation+0x22>
    1faa:	21 91       	ld	r18, Z+
    1fac:	92 27       	eor	r25, r18
    1fae:	28 e0       	ldi	r18, 0x08	; 8
    1fb0:	97 ff       	sbrs	r25, 7
    1fb2:	03 c0       	rjmp	.+6      	; 0x1fba <crc8_calculation+0x1a>
    1fb4:	99 0f       	add	r25, r25
    1fb6:	98 27       	eor	r25, r24
    1fb8:	01 c0       	rjmp	.+2      	; 0x1fbc <crc8_calculation+0x1c>
    1fba:	99 0f       	add	r25, r25
    1fbc:	21 50       	subi	r18, 0x01	; 1
    1fbe:	c1 f7       	brne	.-16     	; 0x1fb0 <crc8_calculation+0x10>
    1fc0:	f2 cf       	rjmp	.-28     	; 0x1fa6 <crc8_calculation+0x6>
    1fc2:	89 2f       	mov	r24, r25
    1fc4:	8f 77       	andi	r24, 0x7F	; 127
    1fc6:	08 95       	ret

00001fc8 <usart_recive_RetStat_RM_D.part.0>:
    1fc8:	6e e4       	ldi	r22, 0x4E	; 78
    1fca:	8e e8       	ldi	r24, 0x8E	; 142
    1fcc:	90 e0       	ldi	r25, 0x00	; 0
    1fce:	0e 94 d0 0f 	call	0x1fa0	; 0x1fa0 <crc8_calculation>
    1fd2:	90 91 dc 00 	lds	r25, 0x00DC	; 0x8000dc <RxBuffer1+0x4e>
    1fd6:	89 13       	cpse	r24, r25
    1fd8:	97 c0       	rjmp	.+302    	; 0x2108 <usart_recive_RetStat_RM_D.part.0+0x140>
    1fda:	93 9a       	sbi	0x12, 3	; 18
    1fdc:	e0 91 46 01 	lds	r30, 0x0146	; 0x800146 <RA_ConfigStr>
    1fe0:	e1 30       	cpi	r30, 0x01	; 1
    1fe2:	49 f4       	brne	.+18     	; 0x1ff6 <usart_recive_RetStat_RM_D.part.0+0x2e>
    1fe4:	10 92 ef 00 	sts	0x00EF, r1	; 0x8000ef <CycleCount+0x1>
    1fe8:	10 92 ee 00 	sts	0x00EE, r1	; 0x8000ee <CycleCount>
    1fec:	80 91 33 01 	lds	r24, 0x0133	; 0x800133 <IndicatorsFacePanelStr+0x8>
    1ff0:	8f 77       	andi	r24, 0x7F	; 127
    1ff2:	80 93 33 01 	sts	0x0133, r24	; 0x800133 <IndicatorsFacePanelStr+0x8>
    1ff6:	80 91 90 00 	lds	r24, 0x0090	; 0x800090 <RxBuffer1+0x2>
    1ffa:	81 11       	cpse	r24, r1
    1ffc:	39 c0       	rjmp	.+114    	; 0x2070 <usart_recive_RetStat_RM_D.part.0+0xa8>
    1ffe:	80 91 92 00 	lds	r24, 0x0092	; 0x800092 <RxBuffer1+0x4>
    2002:	20 91 47 01 	lds	r18, 0x0147	; 0x800147 <RA_ConfigStr+0x1>
    2006:	8f 77       	andi	r24, 0x7F	; 127
    2008:	90 e0       	ldi	r25, 0x00	; 0
    200a:	3f ef       	ldi	r19, 0xFF	; 255
    200c:	32 0f       	add	r19, r18
    200e:	02 c0       	rjmp	.+4      	; 0x2014 <usart_recive_RetStat_RM_D.part.0+0x4c>
    2010:	95 95       	asr	r25
    2012:	87 95       	ror	r24
    2014:	3a 95       	dec	r19
    2016:	e2 f7       	brpl	.-8      	; 0x2010 <usart_recive_RetStat_RM_D.part.0+0x48>
    2018:	80 fd       	sbrc	r24, 0
    201a:	08 c0       	rjmp	.+16     	; 0x202c <usart_recive_RetStat_RM_D.part.0+0x64>
    201c:	28 30       	cpi	r18, 0x08	; 8
    201e:	09 f0       	breq	.+2      	; 0x2022 <usart_recive_RetStat_RM_D.part.0+0x5a>
    2020:	6a c0       	rjmp	.+212    	; 0x20f6 <usart_recive_RetStat_RM_D.part.0+0x12e>
    2022:	80 91 93 00 	lds	r24, 0x0093	; 0x800093 <RxBuffer1+0x5>
    2026:	88 23       	and	r24, r24
    2028:	09 f4       	brne	.+2      	; 0x202c <usart_recive_RetStat_RM_D.part.0+0x64>
    202a:	65 c0       	rjmp	.+202    	; 0x20f6 <usart_recive_RetStat_RM_D.part.0+0x12e>
    202c:	80 91 8f 00 	lds	r24, 0x008F	; 0x80008f <RxBuffer1+0x1>
    2030:	84 ff       	sbrs	r24, 4
    2032:	61 c0       	rjmp	.+194    	; 0x20f6 <usart_recive_RetStat_RM_D.part.0+0x12e>
    2034:	80 91 8f 00 	lds	r24, 0x008F	; 0x80008f <RxBuffer1+0x1>
    2038:	20 91 e8 00 	lds	r18, 0x00E8	; 0x8000e8 <AdressPointer>
    203c:	8f 70       	andi	r24, 0x0F	; 15
    203e:	90 e0       	ldi	r25, 0x00	; 0
    2040:	30 e0       	ldi	r19, 0x00	; 0
    2042:	82 17       	cp	r24, r18
    2044:	93 07       	cpc	r25, r19
    2046:	0c f4       	brge	.+2      	; 0x204a <usart_recive_RetStat_RM_D.part.0+0x82>
    2048:	5f c0       	rjmp	.+190    	; 0x2108 <usart_recive_RetStat_RM_D.part.0+0x140>
    204a:	80 91 8f 00 	lds	r24, 0x008F	; 0x80008f <RxBuffer1+0x1>
    204e:	8f 70       	andi	r24, 0x0F	; 15
    2050:	80 93 e8 00 	sts	0x00E8, r24	; 0x8000e8 <AdressPointer>
    2054:	10 92 ed 00 	sts	0x00ED, r1	; 0x8000ed <RequestCount>
    2058:	80 91 e8 00 	lds	r24, 0x00E8	; 0x8000e8 <AdressPointer>
    205c:	80 93 eb 00 	sts	0x00EB, r24	; 0x8000eb <ConsolAddress>
    2060:	80 91 91 00 	lds	r24, 0x0091	; 0x800091 <RxBuffer1+0x3>
    2064:	82 95       	swap	r24
    2066:	83 70       	andi	r24, 0x03	; 3
    2068:	80 93 e9 00 	sts	0x00E9, r24	; 0x8000e9 <ConsolAudoiChannel>
    206c:	8f ef       	ldi	r24, 0xFF	; 255
    206e:	40 c0       	rjmp	.+128    	; 0x20f0 <usart_recive_RetStat_RM_D.part.0+0x128>
    2070:	f0 e0       	ldi	r31, 0x00	; 0
    2072:	ef 56       	subi	r30, 0x6F	; 111
    2074:	ff 4f       	sbci	r31, 0xFF	; 255
    2076:	80 81       	ld	r24, Z
    2078:	8f 77       	andi	r24, 0x7F	; 127
    207a:	51 f4       	brne	.+20     	; 0x2090 <usart_recive_RetStat_RM_D.part.0+0xc8>
    207c:	a0 91 53 01 	lds	r26, 0x0153	; 0x800153 <WorkRegStr+0x5>
    2080:	b0 e0       	ldi	r27, 0x00	; 0
    2082:	ae 52       	subi	r26, 0x2E	; 46
    2084:	bf 4f       	sbci	r27, 0xFF	; 255
    2086:	9c 91       	ld	r25, X
    2088:	80 91 54 01 	lds	r24, 0x0154	; 0x800154 <WorkRegStr+0x6>
    208c:	89 23       	and	r24, r25
    208e:	99 f1       	breq	.+102    	; 0x20f6 <usart_recive_RetStat_RM_D.part.0+0x12e>
    2090:	80 91 8f 00 	lds	r24, 0x008F	; 0x80008f <RxBuffer1+0x1>
    2094:	84 ff       	sbrs	r24, 4
    2096:	2f c0       	rjmp	.+94     	; 0x20f6 <usart_recive_RetStat_RM_D.part.0+0x12e>
    2098:	80 91 8f 00 	lds	r24, 0x008F	; 0x80008f <RxBuffer1+0x1>
    209c:	20 91 e8 00 	lds	r18, 0x00E8	; 0x8000e8 <AdressPointer>
    20a0:	8f 70       	andi	r24, 0x0F	; 15
    20a2:	90 e0       	ldi	r25, 0x00	; 0
    20a4:	30 e0       	ldi	r19, 0x00	; 0
    20a6:	82 17       	cp	r24, r18
    20a8:	93 07       	cpc	r25, r19
    20aa:	74 f1       	brlt	.+92     	; 0x2108 <usart_recive_RetStat_RM_D.part.0+0x140>
    20ac:	80 91 8f 00 	lds	r24, 0x008F	; 0x80008f <RxBuffer1+0x1>
    20b0:	8f 70       	andi	r24, 0x0F	; 15
    20b2:	80 93 e8 00 	sts	0x00E8, r24	; 0x8000e8 <AdressPointer>
    20b6:	10 92 ed 00 	sts	0x00ED, r1	; 0x8000ed <RequestCount>
    20ba:	80 91 e8 00 	lds	r24, 0x00E8	; 0x8000e8 <AdressPointer>
    20be:	80 93 eb 00 	sts	0x00EB, r24	; 0x8000eb <ConsolAddress>
    20c2:	80 91 91 00 	lds	r24, 0x0091	; 0x800091 <RxBuffer1+0x3>
    20c6:	82 95       	swap	r24
    20c8:	83 70       	andi	r24, 0x03	; 3
    20ca:	80 93 e9 00 	sts	0x00E9, r24	; 0x8000e9 <ConsolAudoiChannel>
    20ce:	80 81       	ld	r24, Z
    20d0:	8f 77       	andi	r24, 0x7F	; 127
    20d2:	80 93 ea 00 	sts	0x00EA, r24	; 0x8000ea <ConsolControlSP>
    20d6:	e0 91 53 01 	lds	r30, 0x0153	; 0x800153 <WorkRegStr+0x5>
    20da:	f0 e0       	ldi	r31, 0x00	; 0
    20dc:	ee 52       	subi	r30, 0x2E	; 46
    20de:	ff 4f       	sbci	r31, 0xFF	; 255
    20e0:	90 81       	ld	r25, Z
    20e2:	80 91 54 01 	lds	r24, 0x0154	; 0x800154 <WorkRegStr+0x6>
    20e6:	89 23       	and	r24, r25
    20e8:	79 f0       	breq	.+30     	; 0x2108 <usart_recive_RetStat_RM_D.part.0+0x140>
    20ea:	80 91 ea 00 	lds	r24, 0x00EA	; 0x8000ea <ConsolControlSP>
    20ee:	80 68       	ori	r24, 0x80	; 128
    20f0:	80 93 ea 00 	sts	0x00EA, r24	; 0x8000ea <ConsolControlSP>
    20f4:	09 c0       	rjmp	.+18     	; 0x2108 <usart_recive_RetStat_RM_D.part.0+0x140>
    20f6:	80 91 8f 00 	lds	r24, 0x008F	; 0x80008f <RxBuffer1+0x1>
    20fa:	90 91 eb 00 	lds	r25, 0x00EB	; 0x8000eb <ConsolAddress>
    20fe:	8f 70       	andi	r24, 0x0F	; 15
    2100:	89 13       	cpse	r24, r25
    2102:	02 c0       	rjmp	.+4      	; 0x2108 <usart_recive_RetStat_RM_D.part.0+0x140>
    2104:	10 92 e8 00 	sts	0x00E8, r1	; 0x8000e8 <AdressPointer>
    2108:	10 92 4f 01 	sts	0x014F, r1	; 0x80014f <WorkRegStr+0x1>
    210c:	10 92 8e 00 	sts	0x008E, r1	; 0x80008e <RxBuffer1>
    2110:	10 92 8f 00 	sts	0x008F, r1	; 0x80008f <RxBuffer1+0x1>
    2114:	08 95       	ret

00002116 <usart_init>:
    2116:	81 b3       	in	r24, 0x11	; 17
    2118:	8c 61       	ori	r24, 0x1C	; 28
    211a:	81 bb       	out	0x11, r24	; 17
    211c:	82 b3       	in	r24, 0x12	; 18
    211e:	83 7e       	andi	r24, 0xE3	; 227
    2120:	82 bb       	out	0x12, r24	; 18
    2122:	84 e0       	ldi	r24, 0x04	; 4
    2124:	89 b9       	out	0x09, r24	; 9
    2126:	10 bc       	out	0x20, r1	; 32
    2128:	1b b8       	out	0x0b, r1	; 11
    212a:	88 e0       	ldi	r24, 0x08	; 8
    212c:	8a b9       	out	0x0a, r24	; 10
    212e:	86 e8       	ldi	r24, 0x86	; 134
    2130:	80 bd       	out	0x20, r24	; 32
    2132:	08 95       	ret

00002134 <usart_config_for_protocol>:
    2134:	cf 93       	push	r28
    2136:	df 93       	push	r29
    2138:	1f 92       	push	r1
    213a:	cd b7       	in	r28, 0x3d	; 61
    213c:	de b7       	in	r29, 0x3e	; 62
    213e:	fc 01       	movw	r30, r24
    2140:	f8 94       	cli
    2142:	90 81       	ld	r25, Z
    2144:	90 93 46 01 	sts	0x0146, r25	; 0x800146 <RA_ConfigStr>
    2148:	81 81       	ldd	r24, Z+1	; 0x01
    214a:	80 93 47 01 	sts	0x0147, r24	; 0x800147 <RA_ConfigStr+0x1>
    214e:	83 81       	ldd	r24, Z+3	; 0x03
    2150:	80 93 49 01 	sts	0x0149, r24	; 0x800149 <RA_ConfigStr+0x3>
    2154:	81 11       	cpse	r24, r1
    2156:	05 c0       	rjmp	.+10     	; 0x2162 <usart_config_for_protocol+0x2e>
    2158:	80 91 33 01 	lds	r24, 0x0133	; 0x800133 <IndicatorsFacePanelStr+0x8>
    215c:	8f 77       	andi	r24, 0x7F	; 127
    215e:	80 93 33 01 	sts	0x0133, r24	; 0x800133 <IndicatorsFacePanelStr+0x8>
    2162:	10 92 eb 00 	sts	0x00EB, r1	; 0x8000eb <ConsolAddress>
    2166:	10 92 e9 00 	sts	0x00E9, r1	; 0x8000e9 <ConsolAudoiChannel>
    216a:	10 92 ea 00 	sts	0x00EA, r1	; 0x8000ea <ConsolControlSP>
    216e:	10 92 e8 00 	sts	0x00E8, r1	; 0x8000e8 <AdressPointer>
    2172:	98 30       	cpi	r25, 0x08	; 8
    2174:	20 f4       	brcc	.+8      	; 0x217e <usart_config_for_protocol+0x4a>
    2176:	10 92 53 01 	sts	0x0153, r1	; 0x800153 <WorkRegStr+0x5>
    217a:	91 50       	subi	r25, 0x01	; 1
    217c:	47 c0       	rjmp	.+142    	; 0x220c <usart_config_for_protocol+0xd8>
    217e:	88 ef       	ldi	r24, 0xF8	; 248
    2180:	89 0f       	add	r24, r25
    2182:	87 30       	cpi	r24, 0x07	; 7
    2184:	28 f4       	brcc	.+10     	; 0x2190 <usart_config_for_protocol+0x5c>
    2186:	81 e0       	ldi	r24, 0x01	; 1
    2188:	80 93 53 01 	sts	0x0153, r24	; 0x800153 <WorkRegStr+0x5>
    218c:	98 50       	subi	r25, 0x08	; 8
    218e:	3e c0       	rjmp	.+124    	; 0x220c <usart_config_for_protocol+0xd8>
    2190:	81 ef       	ldi	r24, 0xF1	; 241
    2192:	89 0f       	add	r24, r25
    2194:	87 30       	cpi	r24, 0x07	; 7
    2196:	28 f4       	brcc	.+10     	; 0x21a2 <usart_config_for_protocol+0x6e>
    2198:	82 e0       	ldi	r24, 0x02	; 2
    219a:	80 93 53 01 	sts	0x0153, r24	; 0x800153 <WorkRegStr+0x5>
    219e:	9f 50       	subi	r25, 0x0F	; 15
    21a0:	35 c0       	rjmp	.+106    	; 0x220c <usart_config_for_protocol+0xd8>
    21a2:	8a ee       	ldi	r24, 0xEA	; 234
    21a4:	89 0f       	add	r24, r25
    21a6:	87 30       	cpi	r24, 0x07	; 7
    21a8:	28 f4       	brcc	.+10     	; 0x21b4 <usart_config_for_protocol+0x80>
    21aa:	83 e0       	ldi	r24, 0x03	; 3
    21ac:	80 93 53 01 	sts	0x0153, r24	; 0x800153 <WorkRegStr+0x5>
    21b0:	96 51       	subi	r25, 0x16	; 22
    21b2:	2c c0       	rjmp	.+88     	; 0x220c <usart_config_for_protocol+0xd8>
    21b4:	83 ee       	ldi	r24, 0xE3	; 227
    21b6:	89 0f       	add	r24, r25
    21b8:	87 30       	cpi	r24, 0x07	; 7
    21ba:	28 f4       	brcc	.+10     	; 0x21c6 <usart_config_for_protocol+0x92>
    21bc:	84 e0       	ldi	r24, 0x04	; 4
    21be:	80 93 53 01 	sts	0x0153, r24	; 0x800153 <WorkRegStr+0x5>
    21c2:	9d 51       	subi	r25, 0x1D	; 29
    21c4:	23 c0       	rjmp	.+70     	; 0x220c <usart_config_for_protocol+0xd8>
    21c6:	8c ed       	ldi	r24, 0xDC	; 220
    21c8:	89 0f       	add	r24, r25
    21ca:	87 30       	cpi	r24, 0x07	; 7
    21cc:	28 f4       	brcc	.+10     	; 0x21d8 <usart_config_for_protocol+0xa4>
    21ce:	85 e0       	ldi	r24, 0x05	; 5
    21d0:	80 93 53 01 	sts	0x0153, r24	; 0x800153 <WorkRegStr+0x5>
    21d4:	94 52       	subi	r25, 0x24	; 36
    21d6:	1a c0       	rjmp	.+52     	; 0x220c <usart_config_for_protocol+0xd8>
    21d8:	85 ed       	ldi	r24, 0xD5	; 213
    21da:	89 0f       	add	r24, r25
    21dc:	87 30       	cpi	r24, 0x07	; 7
    21de:	28 f4       	brcc	.+10     	; 0x21ea <usart_config_for_protocol+0xb6>
    21e0:	86 e0       	ldi	r24, 0x06	; 6
    21e2:	80 93 53 01 	sts	0x0153, r24	; 0x800153 <WorkRegStr+0x5>
    21e6:	9b 52       	subi	r25, 0x2B	; 43
    21e8:	11 c0       	rjmp	.+34     	; 0x220c <usart_config_for_protocol+0xd8>
    21ea:	8e ec       	ldi	r24, 0xCE	; 206
    21ec:	89 0f       	add	r24, r25
    21ee:	87 30       	cpi	r24, 0x07	; 7
    21f0:	28 f4       	brcc	.+10     	; 0x21fc <usart_config_for_protocol+0xc8>
    21f2:	87 e0       	ldi	r24, 0x07	; 7
    21f4:	80 93 53 01 	sts	0x0153, r24	; 0x800153 <WorkRegStr+0x5>
    21f8:	92 53       	subi	r25, 0x32	; 50
    21fa:	08 c0       	rjmp	.+16     	; 0x220c <usart_config_for_protocol+0xd8>
    21fc:	87 ec       	ldi	r24, 0xC7	; 199
    21fe:	89 0f       	add	r24, r25
    2200:	87 30       	cpi	r24, 0x07	; 7
    2202:	70 f4       	brcc	.+28     	; 0x2220 <usart_config_for_protocol+0xec>
    2204:	88 e0       	ldi	r24, 0x08	; 8
    2206:	80 93 53 01 	sts	0x0153, r24	; 0x800153 <WorkRegStr+0x5>
    220a:	99 53       	subi	r25, 0x39	; 57
    220c:	21 e0       	ldi	r18, 0x01	; 1
    220e:	30 e0       	ldi	r19, 0x00	; 0
    2210:	a9 01       	movw	r20, r18
    2212:	02 c0       	rjmp	.+4      	; 0x2218 <usart_config_for_protocol+0xe4>
    2214:	44 0f       	add	r20, r20
    2216:	55 1f       	adc	r21, r21
    2218:	9a 95       	dec	r25
    221a:	e2 f7       	brpl	.-8      	; 0x2214 <usart_config_for_protocol+0xe0>
    221c:	ca 01       	movw	r24, r20
    221e:	06 c0       	rjmp	.+12     	; 0x222c <usart_config_for_protocol+0xf8>
    2220:	90 34       	cpi	r25, 0x40	; 64
    2222:	31 f4       	brne	.+12     	; 0x2230 <usart_config_for_protocol+0xfc>
    2224:	89 e0       	ldi	r24, 0x09	; 9
    2226:	80 93 53 01 	sts	0x0153, r24	; 0x800153 <WorkRegStr+0x5>
    222a:	81 e0       	ldi	r24, 0x01	; 1
    222c:	80 93 54 01 	sts	0x0154, r24	; 0x800154 <WorkRegStr+0x6>
    2230:	80 81       	ld	r24, Z
    2232:	81 30       	cpi	r24, 0x01	; 1
    2234:	21 f4       	brne	.+8      	; 0x223e <usart_config_for_protocol+0x10a>
    2236:	80 91 8a 00 	lds	r24, 0x008A	; 0x80008a <Timer0FlagReg2>
    223a:	81 60       	ori	r24, 0x01	; 1
    223c:	12 c0       	rjmp	.+36     	; 0x2262 <usart_config_for_protocol+0x12e>
    223e:	56 98       	cbi	0x0a, 6	; 10
    2240:	10 92 51 01 	sts	0x0151, r1	; 0x800151 <WorkRegStr+0x3>
    2244:	92 98       	cbi	0x12, 2	; 18
    2246:	8c b1       	in	r24, 0x0c	; 12
    2248:	89 83       	std	Y+1, r24	; 0x01
    224a:	10 92 4f 01 	sts	0x014F, r1	; 0x80014f <WorkRegStr+0x1>
    224e:	10 92 8e 00 	sts	0x008E, r1	; 0x80008e <RxBuffer1>
    2252:	10 92 8f 00 	sts	0x008F, r1	; 0x80008f <RxBuffer1+0x1>
    2256:	8a b1       	in	r24, 0x0a	; 10
    2258:	80 69       	ori	r24, 0x90	; 144
    225a:	8a b9       	out	0x0a, r24	; 10
    225c:	80 91 8a 00 	lds	r24, 0x008A	; 0x80008a <Timer0FlagReg2>
    2260:	82 60       	ori	r24, 0x02	; 2
    2262:	80 93 8a 00 	sts	0x008A, r24	; 0x80008a <Timer0FlagReg2>
    2266:	78 94       	sei
    2268:	0f 90       	pop	r0
    226a:	df 91       	pop	r29
    226c:	cf 91       	pop	r28
    226e:	08 95       	ret

00002270 <priority_for_protocol>:
    2270:	83 30       	cpi	r24, 0x03	; 3
    2272:	91 f0       	breq	.+36     	; 0x2298 <priority_for_protocol+0x28>
    2274:	28 f4       	brcc	.+10     	; 0x2280 <priority_for_protocol+0x10>
    2276:	81 30       	cpi	r24, 0x01	; 1
    2278:	41 f0       	breq	.+16     	; 0x228a <priority_for_protocol+0x1a>
    227a:	82 30       	cpi	r24, 0x02	; 2
    227c:	41 f0       	breq	.+16     	; 0x228e <priority_for_protocol+0x1e>
    227e:	08 95       	ret
    2280:	84 30       	cpi	r24, 0x04	; 4
    2282:	39 f0       	breq	.+14     	; 0x2292 <priority_for_protocol+0x22>
    2284:	85 30       	cpi	r24, 0x05	; 5
    2286:	39 f0       	breq	.+14     	; 0x2296 <priority_for_protocol+0x26>
    2288:	08 95       	ret
    228a:	85 e0       	ldi	r24, 0x05	; 5
    228c:	05 c0       	rjmp	.+10     	; 0x2298 <priority_for_protocol+0x28>
    228e:	84 e0       	ldi	r24, 0x04	; 4
    2290:	03 c0       	rjmp	.+6      	; 0x2298 <priority_for_protocol+0x28>
    2292:	82 e0       	ldi	r24, 0x02	; 2
    2294:	01 c0       	rjmp	.+2      	; 0x2298 <priority_for_protocol+0x28>
    2296:	81 e0       	ldi	r24, 0x01	; 1
    2298:	80 93 ec 00 	sts	0x00EC, r24	; 0x8000ec <Priority>
    229c:	08 95       	ret

0000229e <get_consol_number>:
    229e:	80 91 eb 00 	lds	r24, 0x00EB	; 0x8000eb <ConsolAddress>
    22a2:	08 95       	ret

000022a4 <get_consol_audio_chanel>:
    22a4:	80 91 e9 00 	lds	r24, 0x00E9	; 0x8000e9 <ConsolAudoiChannel>
    22a8:	08 95       	ret

000022aa <get_consol_control>:
    22aa:	80 91 ea 00 	lds	r24, 0x00EA	; 0x8000ea <ConsolControlSP>
    22ae:	08 95       	ret

000022b0 <usart_cycle_count_modify>:
    22b0:	80 91 ee 00 	lds	r24, 0x00EE	; 0x8000ee <CycleCount>
    22b4:	90 91 ef 00 	lds	r25, 0x00EF	; 0x8000ef <CycleCount+0x1>
    22b8:	01 96       	adiw	r24, 0x01	; 1
    22ba:	90 93 ef 00 	sts	0x00EF, r25	; 0x8000ef <CycleCount+0x1>
    22be:	80 93 ee 00 	sts	0x00EE, r24	; 0x8000ee <CycleCount>
    22c2:	86 39       	cpi	r24, 0x96	; 150
    22c4:	91 05       	cpc	r25, r1
    22c6:	f0 f0       	brcs	.+60     	; 0x2304 <usart_cycle_count_modify+0x54>
    22c8:	10 92 ef 00 	sts	0x00EF, r1	; 0x8000ef <CycleCount+0x1>
    22cc:	10 92 ee 00 	sts	0x00EE, r1	; 0x8000ee <CycleCount>
    22d0:	10 92 eb 00 	sts	0x00EB, r1	; 0x8000eb <ConsolAddress>
    22d4:	10 92 e8 00 	sts	0x00E8, r1	; 0x8000e8 <AdressPointer>
    22d8:	10 92 ea 00 	sts	0x00EA, r1	; 0x8000ea <ConsolControlSP>
    22dc:	10 92 4f 01 	sts	0x014F, r1	; 0x80014f <WorkRegStr+0x1>
    22e0:	10 92 8e 00 	sts	0x008E, r1	; 0x80008e <RxBuffer1>
    22e4:	10 92 8f 00 	sts	0x008F, r1	; 0x80008f <RxBuffer1+0x1>
    22e8:	8a b1       	in	r24, 0x0a	; 10
    22ea:	80 69       	ori	r24, 0x90	; 144
    22ec:	8a b9       	out	0x0a, r24	; 10
    22ee:	90 91 49 01 	lds	r25, 0x0149	; 0x800149 <RA_ConfigStr+0x3>
    22f2:	80 91 33 01 	lds	r24, 0x0133	; 0x800133 <IndicatorsFacePanelStr+0x8>
    22f6:	99 23       	and	r25, r25
    22f8:	11 f0       	breq	.+4      	; 0x22fe <usart_cycle_count_modify+0x4e>
    22fa:	80 68       	ori	r24, 0x80	; 128
    22fc:	01 c0       	rjmp	.+2      	; 0x2300 <usart_cycle_count_modify+0x50>
    22fe:	8f 77       	andi	r24, 0x7F	; 127
    2300:	80 93 33 01 	sts	0x0133, r24	; 0x800133 <IndicatorsFacePanelStr+0x8>
    2304:	08 95       	ret

00002306 <rs485_protocol>:
    2306:	0f 93       	push	r16
    2308:	1f 93       	push	r17
    230a:	cf 93       	push	r28
    230c:	df 93       	push	r29
    230e:	1f 92       	push	r1
    2310:	cd b7       	in	r28, 0x3d	; 61
    2312:	de b7       	in	r29, 0x3e	; 62
    2314:	19 82       	std	Y+1, r1	; 0x01
    2316:	10 91 8d 00 	lds	r17, 0x008D	; 0x80008d <step.2241>
    231a:	12 30       	cpi	r17, 0x02	; 2
    231c:	09 f4       	brne	.+2      	; 0x2320 <rs485_protocol+0x1a>
    231e:	9b c0       	rjmp	.+310    	; 0x2456 <rs485_protocol+0x150>
    2320:	30 f4       	brcc	.+12     	; 0x232e <rs485_protocol+0x28>
    2322:	11 23       	and	r17, r17
    2324:	59 f0       	breq	.+22     	; 0x233c <rs485_protocol+0x36>
    2326:	11 30       	cpi	r17, 0x01	; 1
    2328:	09 f4       	brne	.+2      	; 0x232c <rs485_protocol+0x26>
    232a:	73 c0       	rjmp	.+230    	; 0x2412 <rs485_protocol+0x10c>
    232c:	fd c0       	rjmp	.+506    	; 0x2528 <rs485_protocol+0x222>
    232e:	13 30       	cpi	r17, 0x03	; 3
    2330:	09 f4       	brne	.+2      	; 0x2334 <rs485_protocol+0x2e>
    2332:	a0 c0       	rjmp	.+320    	; 0x2474 <rs485_protocol+0x16e>
    2334:	14 30       	cpi	r17, 0x04	; 4
    2336:	09 f4       	brne	.+2      	; 0x233a <rs485_protocol+0x34>
    2338:	be c0       	rjmp	.+380    	; 0x24b6 <rs485_protocol+0x1b0>
    233a:	f6 c0       	rjmp	.+492    	; 0x2528 <rs485_protocol+0x222>
    233c:	85 e8       	ldi	r24, 0x85	; 133
    233e:	80 93 de 00 	sts	0x00DE, r24	; 0x8000de <TxBuffer>
    2342:	81 e0       	ldi	r24, 0x01	; 1
    2344:	80 93 df 00 	sts	0x00DF, r24	; 0x8000df <TxBuffer+0x1>
    2348:	80 91 47 01 	lds	r24, 0x0147	; 0x800147 <RA_ConfigStr+0x1>
    234c:	8f 70       	andi	r24, 0x0F	; 15
    234e:	89 83       	std	Y+1, r24	; 0x01
    2350:	0e 94 17 07 	call	0xe2e	; 0xe2e <get_lines_to_control>
    2354:	18 2f       	mov	r17, r24
    2356:	0e 94 1e 07 	call	0xe3c	; 0xe3c <get_alarms_lines>
    235a:	08 2f       	mov	r16, r24
    235c:	0e 94 1a 07 	call	0xe34	; 0xe34 <get_blocked_speaker_line>
    2360:	49 81       	ldd	r20, Y+1	; 0x01
    2362:	90 e0       	ldi	r25, 0x00	; 0
    2364:	80 95       	com	r24
    2366:	90 95       	com	r25
    2368:	80 2b       	or	r24, r16
    236a:	21 2f       	mov	r18, r17
    236c:	30 e0       	ldi	r19, 0x00	; 0
    236e:	82 23       	and	r24, r18
    2370:	93 23       	and	r25, r19
    2372:	95 95       	asr	r25
    2374:	87 95       	ror	r24
    2376:	95 95       	asr	r25
    2378:	87 95       	ror	r24
    237a:	80 72       	andi	r24, 0x20	; 32
    237c:	99 27       	eor	r25, r25
    237e:	84 2b       	or	r24, r20
    2380:	89 83       	std	Y+1, r24	; 0x01
    2382:	81 e0       	ldi	r24, 0x01	; 1
    2384:	0e 94 70 09 	call	0x12e0	; 0x12e0 <get_relay_state>
    2388:	99 81       	ldd	r25, Y+1	; 0x01
    238a:	86 95       	lsr	r24
    238c:	86 95       	lsr	r24
    238e:	86 95       	lsr	r24
    2390:	80 71       	andi	r24, 0x10	; 16
    2392:	98 2b       	or	r25, r24
    2394:	99 83       	std	Y+1, r25	; 0x01
    2396:	89 81       	ldd	r24, Y+1	; 0x01
    2398:	80 93 e0 00 	sts	0x00E0, r24	; 0x8000e0 <TxBuffer+0x2>
    239c:	80 91 eb 00 	lds	r24, 0x00EB	; 0x8000eb <ConsolAddress>
    23a0:	8f 70       	andi	r24, 0x0F	; 15
    23a2:	89 83       	std	Y+1, r24	; 0x01
    23a4:	0e 94 af 04 	call	0x95e	; 0x95e <get_charge_indication>
    23a8:	88 23       	and	r24, r24
    23aa:	19 f0       	breq	.+6      	; 0x23b2 <rs485_protocol+0xac>
    23ac:	89 81       	ldd	r24, Y+1	; 0x01
    23ae:	80 61       	ori	r24, 0x10	; 16
    23b0:	89 83       	std	Y+1, r24	; 0x01
    23b2:	89 81       	ldd	r24, Y+1	; 0x01
    23b4:	80 93 e1 00 	sts	0x00E1, r24	; 0x8000e1 <TxBuffer+0x3>
    23b8:	80 91 ec 00 	lds	r24, 0x00EC	; 0x8000ec <Priority>
    23bc:	8f 70       	andi	r24, 0x0F	; 15
    23be:	80 93 e2 00 	sts	0x00E2, r24	; 0x8000e2 <TxBuffer+0x4>
    23c2:	81 e0       	ldi	r24, 0x01	; 1
    23c4:	0e 94 70 09 	call	0x12e0	; 0x12e0 <get_relay_state>
    23c8:	8f 77       	andi	r24, 0x7F	; 127
    23ca:	80 93 e3 00 	sts	0x00E3, r24	; 0x8000e3 <TxBuffer+0x5>
    23ce:	0e 94 17 07 	call	0xe2e	; 0xe2e <get_lines_to_control>
    23d2:	18 2f       	mov	r17, r24
    23d4:	0e 94 1e 07 	call	0xe3c	; 0xe3c <get_alarms_lines>
    23d8:	08 2f       	mov	r16, r24
    23da:	0e 94 1a 07 	call	0xe34	; 0xe34 <get_blocked_speaker_line>
    23de:	80 95       	com	r24
    23e0:	08 2b       	or	r16, r24
    23e2:	10 23       	and	r17, r16
    23e4:	1f 77       	andi	r17, 0x7F	; 127
    23e6:	10 93 e4 00 	sts	0x00E4, r17	; 0x8000e4 <TxBuffer+0x6>
    23ea:	10 92 e5 00 	sts	0x00E5, r1	; 0x8000e5 <TxBuffer+0x7>
    23ee:	10 92 e6 00 	sts	0x00E6, r1	; 0x8000e6 <TxBuffer+0x8>
    23f2:	69 e0       	ldi	r22, 0x09	; 9
    23f4:	8e ed       	ldi	r24, 0xDE	; 222
    23f6:	90 e0       	ldi	r25, 0x00	; 0
    23f8:	0e 94 d0 0f 	call	0x1fa0	; 0x1fa0 <crc8_calculation>
    23fc:	80 93 e7 00 	sts	0x00E7, r24	; 0x8000e7 <TxBuffer+0x9>
    2400:	8a e0       	ldi	r24, 0x0A	; 10
    2402:	80 93 52 01 	sts	0x0152, r24	; 0x800152 <WorkRegStr+0x4>
    2406:	94 9a       	sbi	0x12, 4	; 18
    2408:	82 e0       	ldi	r24, 0x02	; 2
    240a:	80 93 8c 00 	sts	0x008C, r24	; 0x80008c <address.2242>
    240e:	81 e0       	ldi	r24, 0x01	; 1
    2410:	1f c0       	rjmp	.+62     	; 0x2450 <rs485_protocol+0x14a>
    2412:	81 e8       	ldi	r24, 0x81	; 129
    2414:	80 93 de 00 	sts	0x00DE, r24	; 0x8000de <TxBuffer>
    2418:	80 91 8c 00 	lds	r24, 0x008C	; 0x80008c <address.2242>
    241c:	8f 77       	andi	r24, 0x7F	; 127
    241e:	80 93 df 00 	sts	0x00DF, r24	; 0x8000df <TxBuffer+0x1>
    2422:	62 e0       	ldi	r22, 0x02	; 2
    2424:	8e ed       	ldi	r24, 0xDE	; 222
    2426:	90 e0       	ldi	r25, 0x00	; 0
    2428:	0e 94 d0 0f 	call	0x1fa0	; 0x1fa0 <crc8_calculation>
    242c:	80 93 e0 00 	sts	0x00E0, r24	; 0x8000e0 <TxBuffer+0x2>
    2430:	83 e0       	ldi	r24, 0x03	; 3
    2432:	80 93 52 01 	sts	0x0152, r24	; 0x800152 <WorkRegStr+0x4>
    2436:	80 91 8c 00 	lds	r24, 0x008C	; 0x80008c <address.2242>
    243a:	8f 5f       	subi	r24, 0xFF	; 255
    243c:	80 93 8c 00 	sts	0x008C, r24	; 0x80008c <address.2242>
    2440:	10 93 8d 00 	sts	0x008D, r17	; 0x80008d <step.2241>
    2444:	80 91 8c 00 	lds	r24, 0x008C	; 0x80008c <address.2242>
    2448:	8a 34       	cpi	r24, 0x4A	; 74
    244a:	09 f0       	breq	.+2      	; 0x244e <rs485_protocol+0x148>
    244c:	6d c0       	rjmp	.+218    	; 0x2528 <rs485_protocol+0x222>
    244e:	82 e0       	ldi	r24, 0x02	; 2
    2450:	80 93 8d 00 	sts	0x008D, r24	; 0x80008d <step.2241>
    2454:	69 c0       	rjmp	.+210    	; 0x2528 <rs485_protocol+0x222>
    2456:	84 e8       	ldi	r24, 0x84	; 132
    2458:	80 93 de 00 	sts	0x00DE, r24	; 0x8000de <TxBuffer>
    245c:	82 e1       	ldi	r24, 0x12	; 18
    245e:	80 93 df 00 	sts	0x00DF, r24	; 0x8000df <TxBuffer+0x1>
    2462:	10 93 52 01 	sts	0x0152, r17	; 0x800152 <WorkRegStr+0x4>
    2466:	89 e4       	ldi	r24, 0x49	; 73
    2468:	80 93 8c 00 	sts	0x008C, r24	; 0x80008c <address.2242>
    246c:	10 92 e8 00 	sts	0x00E8, r1	; 0x8000e8 <AdressPointer>
    2470:	83 e0       	ldi	r24, 0x03	; 3
    2472:	ee cf       	rjmp	.-36     	; 0x2450 <rs485_protocol+0x14a>
    2474:	82 e8       	ldi	r24, 0x82	; 130
    2476:	80 93 de 00 	sts	0x00DE, r24	; 0x8000de <TxBuffer>
    247a:	80 91 8c 00 	lds	r24, 0x008C	; 0x80008c <address.2242>
    247e:	8f 77       	andi	r24, 0x7F	; 127
    2480:	80 93 df 00 	sts	0x00DF, r24	; 0x8000df <TxBuffer+0x1>
    2484:	62 e0       	ldi	r22, 0x02	; 2
    2486:	8e ed       	ldi	r24, 0xDE	; 222
    2488:	90 e0       	ldi	r25, 0x00	; 0
    248a:	0e 94 d0 0f 	call	0x1fa0	; 0x1fa0 <crc8_calculation>
    248e:	80 93 e0 00 	sts	0x00E0, r24	; 0x8000e0 <TxBuffer+0x2>
    2492:	10 93 52 01 	sts	0x0152, r17	; 0x800152 <WorkRegStr+0x4>
    2496:	80 91 4e 01 	lds	r24, 0x014E	; 0x80014e <WorkRegStr>
    249a:	82 60       	ori	r24, 0x02	; 2
    249c:	80 93 4e 01 	sts	0x014E, r24	; 0x80014e <WorkRegStr>
    24a0:	80 91 8c 00 	lds	r24, 0x008C	; 0x80008c <address.2242>
    24a4:	81 50       	subi	r24, 0x01	; 1
    24a6:	80 93 8c 00 	sts	0x008C, r24	; 0x80008c <address.2242>
    24aa:	80 91 8c 00 	lds	r24, 0x008C	; 0x80008c <address.2242>
    24ae:	80 34       	cpi	r24, 0x40	; 64
    24b0:	d9 f5       	brne	.+118    	; 0x2528 <rs485_protocol+0x222>
    24b2:	84 e0       	ldi	r24, 0x04	; 4
    24b4:	cd cf       	rjmp	.-102    	; 0x2450 <rs485_protocol+0x14a>
    24b6:	8a b1       	in	r24, 0x0a	; 10
    24b8:	8f 76       	andi	r24, 0x6F	; 111
    24ba:	8a b9       	out	0x0a, r24	; 10
    24bc:	83 e8       	ldi	r24, 0x83	; 131
    24be:	80 93 de 00 	sts	0x00DE, r24	; 0x8000de <TxBuffer>
    24c2:	85 e0       	ldi	r24, 0x05	; 5
    24c4:	80 93 df 00 	sts	0x00DF, r24	; 0x8000df <TxBuffer+0x1>
    24c8:	82 e0       	ldi	r24, 0x02	; 2
    24ca:	80 93 52 01 	sts	0x0152, r24	; 0x800152 <WorkRegStr+0x4>
    24ce:	80 91 ee 00 	lds	r24, 0x00EE	; 0x8000ee <CycleCount>
    24d2:	90 91 ef 00 	lds	r25, 0x00EF	; 0x8000ef <CycleCount+0x1>
    24d6:	01 96       	adiw	r24, 0x01	; 1
    24d8:	90 93 ef 00 	sts	0x00EF, r25	; 0x8000ef <CycleCount+0x1>
    24dc:	80 93 ee 00 	sts	0x00EE, r24	; 0x8000ee <CycleCount>
    24e0:	04 97       	sbiw	r24, 0x04	; 4
    24e2:	98 f0       	brcs	.+38     	; 0x250a <rs485_protocol+0x204>
    24e4:	10 92 ef 00 	sts	0x00EF, r1	; 0x8000ef <CycleCount+0x1>
    24e8:	10 92 ee 00 	sts	0x00EE, r1	; 0x8000ee <CycleCount>
    24ec:	10 92 eb 00 	sts	0x00EB, r1	; 0x8000eb <ConsolAddress>
    24f0:	10 92 e8 00 	sts	0x00E8, r1	; 0x8000e8 <AdressPointer>
    24f4:	90 91 49 01 	lds	r25, 0x0149	; 0x800149 <RA_ConfigStr+0x3>
    24f8:	80 91 33 01 	lds	r24, 0x0133	; 0x800133 <IndicatorsFacePanelStr+0x8>
    24fc:	99 23       	and	r25, r25
    24fe:	11 f0       	breq	.+4      	; 0x2504 <rs485_protocol+0x1fe>
    2500:	80 68       	ori	r24, 0x80	; 128
    2502:	01 c0       	rjmp	.+2      	; 0x2506 <rs485_protocol+0x200>
    2504:	8f 77       	andi	r24, 0x7F	; 127
    2506:	80 93 33 01 	sts	0x0133, r24	; 0x800133 <IndicatorsFacePanelStr+0x8>
    250a:	80 91 ed 00 	lds	r24, 0x00ED	; 0x8000ed <RequestCount>
    250e:	8f 5f       	subi	r24, 0xFF	; 255
    2510:	80 93 ed 00 	sts	0x00ED, r24	; 0x8000ed <RequestCount>
    2514:	84 30       	cpi	r24, 0x04	; 4
    2516:	30 f0       	brcs	.+12     	; 0x2524 <rs485_protocol+0x21e>
    2518:	10 92 ed 00 	sts	0x00ED, r1	; 0x8000ed <RequestCount>
    251c:	10 92 eb 00 	sts	0x00EB, r1	; 0x8000eb <ConsolAddress>
    2520:	10 92 e8 00 	sts	0x00E8, r1	; 0x8000e8 <AdressPointer>
    2524:	10 92 8d 00 	sts	0x008D, r1	; 0x80008d <step.2241>
    2528:	92 9a       	sbi	0x12, 2	; 18
    252a:	80 91 de 00 	lds	r24, 0x00DE	; 0x8000de <TxBuffer>
    252e:	8c b9       	out	0x0c, r24	; 12
    2530:	56 9a       	sbi	0x0a, 6	; 10
    2532:	0f 90       	pop	r0
    2534:	df 91       	pop	r29
    2536:	cf 91       	pop	r28
    2538:	1f 91       	pop	r17
    253a:	0f 91       	pop	r16
    253c:	08 95       	ret

0000253e <send_request_from_RA2>:
    253e:	0f 93       	push	r16
    2540:	1f 93       	push	r17
    2542:	cf 93       	push	r28
    2544:	df 93       	push	r29
    2546:	85 e8       	ldi	r24, 0x85	; 133
    2548:	80 93 de 00 	sts	0x00DE, r24	; 0x8000de <TxBuffer>
    254c:	80 91 46 01 	lds	r24, 0x0146	; 0x800146 <RA_ConfigStr>
    2550:	8f 77       	andi	r24, 0x7F	; 127
    2552:	80 93 df 00 	sts	0x00DF, r24	; 0x8000df <TxBuffer+0x1>
    2556:	10 91 47 01 	lds	r17, 0x0147	; 0x800147 <RA_ConfigStr+0x1>
    255a:	1f 70       	andi	r17, 0x0F	; 15
    255c:	0e 94 17 07 	call	0xe2e	; 0xe2e <get_lines_to_control>
    2560:	c8 2f       	mov	r28, r24
    2562:	0e 94 1e 07 	call	0xe3c	; 0xe3c <get_alarms_lines>
    2566:	08 2f       	mov	r16, r24
    2568:	0e 94 1a 07 	call	0xe34	; 0xe34 <get_blocked_speaker_line>
    256c:	d8 2f       	mov	r29, r24
    256e:	81 e0       	ldi	r24, 0x01	; 1
    2570:	0e 94 70 09 	call	0x12e0	; 0x12e0 <get_relay_state>
    2574:	2d 2f       	mov	r18, r29
    2576:	30 e0       	ldi	r19, 0x00	; 0
    2578:	20 95       	com	r18
    257a:	30 95       	com	r19
    257c:	20 2b       	or	r18, r16
    257e:	4c 2f       	mov	r20, r28
    2580:	50 e0       	ldi	r21, 0x00	; 0
    2582:	24 23       	and	r18, r20
    2584:	35 23       	and	r19, r21
    2586:	35 95       	asr	r19
    2588:	27 95       	ror	r18
    258a:	35 95       	asr	r19
    258c:	27 95       	ror	r18
    258e:	20 72       	andi	r18, 0x20	; 32
    2590:	33 27       	eor	r19, r19
    2592:	86 95       	lsr	r24
    2594:	86 95       	lsr	r24
    2596:	86 95       	lsr	r24
    2598:	80 71       	andi	r24, 0x10	; 16
    259a:	18 2b       	or	r17, r24
    259c:	21 2b       	or	r18, r17
    259e:	20 93 e0 00 	sts	0x00E0, r18	; 0x8000e0 <TxBuffer+0x2>
    25a2:	c0 91 eb 00 	lds	r28, 0x00EB	; 0x8000eb <ConsolAddress>
    25a6:	cf 70       	andi	r28, 0x0F	; 15
    25a8:	0e 94 af 04 	call	0x95e	; 0x95e <get_charge_indication>
    25ac:	81 11       	cpse	r24, r1
    25ae:	c0 61       	ori	r28, 0x10	; 16
    25b0:	c0 93 e1 00 	sts	0x00E1, r28	; 0x8000e1 <TxBuffer+0x3>
    25b4:	80 91 ec 00 	lds	r24, 0x00EC	; 0x8000ec <Priority>
    25b8:	8f 70       	andi	r24, 0x0F	; 15
    25ba:	80 93 e2 00 	sts	0x00E2, r24	; 0x8000e2 <TxBuffer+0x4>
    25be:	81 e0       	ldi	r24, 0x01	; 1
    25c0:	0e 94 70 09 	call	0x12e0	; 0x12e0 <get_relay_state>
    25c4:	8f 77       	andi	r24, 0x7F	; 127
    25c6:	80 93 e3 00 	sts	0x00E3, r24	; 0x8000e3 <TxBuffer+0x5>
    25ca:	0e 94 17 07 	call	0xe2e	; 0xe2e <get_lines_to_control>
    25ce:	c8 2f       	mov	r28, r24
    25d0:	0e 94 1e 07 	call	0xe3c	; 0xe3c <get_alarms_lines>
    25d4:	d8 2f       	mov	r29, r24
    25d6:	0e 94 1a 07 	call	0xe34	; 0xe34 <get_blocked_speaker_line>
    25da:	80 95       	com	r24
    25dc:	d8 2b       	or	r29, r24
    25de:	cd 23       	and	r28, r29
    25e0:	cf 77       	andi	r28, 0x7F	; 127
    25e2:	c0 93 e4 00 	sts	0x00E4, r28	; 0x8000e4 <TxBuffer+0x6>
    25e6:	10 92 e5 00 	sts	0x00E5, r1	; 0x8000e5 <TxBuffer+0x7>
    25ea:	10 92 e6 00 	sts	0x00E6, r1	; 0x8000e6 <TxBuffer+0x8>
    25ee:	69 e0       	ldi	r22, 0x09	; 9
    25f0:	8e ed       	ldi	r24, 0xDE	; 222
    25f2:	90 e0       	ldi	r25, 0x00	; 0
    25f4:	0e 94 d0 0f 	call	0x1fa0	; 0x1fa0 <crc8_calculation>
    25f8:	80 93 e7 00 	sts	0x00E7, r24	; 0x8000e7 <TxBuffer+0x9>
    25fc:	80 91 4e 01 	lds	r24, 0x014E	; 0x80014e <WorkRegStr>
    2600:	82 60       	ori	r24, 0x02	; 2
    2602:	80 93 4e 01 	sts	0x014E, r24	; 0x80014e <WorkRegStr>
    2606:	94 9a       	sbi	0x12, 4	; 18
    2608:	8a e0       	ldi	r24, 0x0A	; 10
    260a:	80 93 52 01 	sts	0x0152, r24	; 0x800152 <WorkRegStr+0x4>
    260e:	92 9a       	sbi	0x12, 2	; 18
    2610:	80 91 de 00 	lds	r24, 0x00DE	; 0x8000de <TxBuffer>
    2614:	8c b9       	out	0x0c, r24	; 12
    2616:	56 9a       	sbi	0x0a, 6	; 10
    2618:	df 91       	pop	r29
    261a:	cf 91       	pop	r28
    261c:	1f 91       	pop	r17
    261e:	0f 91       	pop	r16
    2620:	08 95       	ret

00002622 <__vector_13>:
    2622:	1f 92       	push	r1
    2624:	0f 92       	push	r0
    2626:	0f b6       	in	r0, 0x3f	; 63
    2628:	0f 92       	push	r0
    262a:	11 24       	eor	r1, r1
    262c:	2f 93       	push	r18
    262e:	3f 93       	push	r19
    2630:	4f 93       	push	r20
    2632:	5f 93       	push	r21
    2634:	6f 93       	push	r22
    2636:	7f 93       	push	r23
    2638:	8f 93       	push	r24
    263a:	9f 93       	push	r25
    263c:	af 93       	push	r26
    263e:	bf 93       	push	r27
    2640:	cf 93       	push	r28
    2642:	ef 93       	push	r30
    2644:	ff 93       	push	r31
    2646:	8b b1       	in	r24, 0x0b	; 11
    2648:	cc b1       	in	r28, 0x0c	; 12
    264a:	8c 71       	andi	r24, 0x1C	; 28
    264c:	09 f0       	breq	.+2      	; 0x2650 <__vector_13+0x2e>
    264e:	6e c0       	rjmp	.+220    	; 0x272c <__vector_13+0x10a>
    2650:	80 91 4f 01 	lds	r24, 0x014F	; 0x80014f <WorkRegStr+0x1>
    2654:	8f 5f       	subi	r24, 0xFF	; 255
    2656:	80 93 4f 01 	sts	0x014F, r24	; 0x80014f <WorkRegStr+0x1>
    265a:	80 91 46 01 	lds	r24, 0x0146	; 0x800146 <RA_ConfigStr>
    265e:	81 30       	cpi	r24, 0x01	; 1
    2660:	71 f4       	brne	.+28     	; 0x267e <__vector_13+0x5c>
    2662:	e0 91 4f 01 	lds	r30, 0x014F	; 0x80014f <WorkRegStr+0x1>
    2666:	f0 e0       	ldi	r31, 0x00	; 0
    2668:	e3 57       	subi	r30, 0x73	; 115
    266a:	ff 4f       	sbci	r31, 0xFF	; 255
    266c:	c0 83       	st	Z, r28
    266e:	80 91 4f 01 	lds	r24, 0x014F	; 0x80014f <WorkRegStr+0x1>
    2672:	8f 34       	cpi	r24, 0x4F	; 79
    2674:	08 f4       	brcc	.+2      	; 0x2678 <__vector_13+0x56>
    2676:	5a c0       	rjmp	.+180    	; 0x272c <__vector_13+0x10a>
    2678:	0e 94 e4 0f 	call	0x1fc8	; 0x1fc8 <usart_recive_RetStat_RM_D.part.0>
    267c:	57 c0       	rjmp	.+174    	; 0x272c <__vector_13+0x10a>
    267e:	90 91 8e 00 	lds	r25, 0x008E	; 0x80008e <RxBuffer1>
    2682:	91 38       	cpi	r25, 0x81	; 129
    2684:	29 f0       	breq	.+10     	; 0x2690 <__vector_13+0x6e>
    2686:	90 91 8e 00 	lds	r25, 0x008E	; 0x80008e <RxBuffer1>
    268a:	98 38       	cpi	r25, 0x88	; 136
    268c:	09 f0       	breq	.+2      	; 0x2690 <__vector_13+0x6e>
    268e:	45 c0       	rjmp	.+138    	; 0x271a <__vector_13+0xf8>
    2690:	90 91 8e 00 	lds	r25, 0x008E	; 0x80008e <RxBuffer1>
    2694:	91 38       	cpi	r25, 0x81	; 129
    2696:	b9 f5       	brne	.+110    	; 0x2706 <__vector_13+0xe4>
    2698:	90 91 8f 00 	lds	r25, 0x008F	; 0x80008f <RxBuffer1+0x1>
    269c:	89 13       	cpse	r24, r25
    269e:	29 c0       	rjmp	.+82     	; 0x26f2 <__vector_13+0xd0>
    26a0:	62 e0       	ldi	r22, 0x02	; 2
    26a2:	8e e8       	ldi	r24, 0x8E	; 142
    26a4:	90 e0       	ldi	r25, 0x00	; 0
    26a6:	0e 94 d0 0f 	call	0x1fa0	; 0x1fa0 <crc8_calculation>
    26aa:	10 92 4f 01 	sts	0x014F, r1	; 0x80014f <WorkRegStr+0x1>
    26ae:	10 92 8e 00 	sts	0x008E, r1	; 0x80008e <RxBuffer1>
    26b2:	10 92 8f 00 	sts	0x008F, r1	; 0x80008f <RxBuffer1+0x1>
    26b6:	8c 13       	cpse	r24, r28
    26b8:	39 c0       	rjmp	.+114    	; 0x272c <__vector_13+0x10a>
    26ba:	80 91 ed 00 	lds	r24, 0x00ED	; 0x8000ed <RequestCount>
    26be:	8f 5f       	subi	r24, 0xFF	; 255
    26c0:	80 93 ed 00 	sts	0x00ED, r24	; 0x8000ed <RequestCount>
    26c4:	85 30       	cpi	r24, 0x05	; 5
    26c6:	30 f0       	brcs	.+12     	; 0x26d4 <__vector_13+0xb2>
    26c8:	10 92 ed 00 	sts	0x00ED, r1	; 0x8000ed <RequestCount>
    26cc:	10 92 eb 00 	sts	0x00EB, r1	; 0x8000eb <ConsolAddress>
    26d0:	10 92 e8 00 	sts	0x00E8, r1	; 0x8000e8 <AdressPointer>
    26d4:	10 92 ef 00 	sts	0x00EF, r1	; 0x8000ef <CycleCount+0x1>
    26d8:	10 92 ee 00 	sts	0x00EE, r1	; 0x8000ee <CycleCount>
    26dc:	80 91 33 01 	lds	r24, 0x0133	; 0x800133 <IndicatorsFacePanelStr+0x8>
    26e0:	8f 77       	andi	r24, 0x7F	; 127
    26e2:	80 93 33 01 	sts	0x0133, r24	; 0x800133 <IndicatorsFacePanelStr+0x8>
    26e6:	80 91 8a 00 	lds	r24, 0x008A	; 0x80008a <Timer0FlagReg2>
    26ea:	84 60       	ori	r24, 0x04	; 4
    26ec:	80 93 8a 00 	sts	0x008A, r24	; 0x80008a <Timer0FlagReg2>
    26f0:	1d c0       	rjmp	.+58     	; 0x272c <__vector_13+0x10a>
    26f2:	8c 17       	cp	r24, r28
    26f4:	29 f0       	breq	.+10     	; 0x2700 <__vector_13+0xde>
    26f6:	10 92 4f 01 	sts	0x014F, r1	; 0x80014f <WorkRegStr+0x1>
    26fa:	10 92 8e 00 	sts	0x008E, r1	; 0x80008e <RxBuffer1>
    26fe:	81 e0       	ldi	r24, 0x01	; 1
    2700:	80 93 8f 00 	sts	0x008F, r24	; 0x80008f <RxBuffer1+0x1>
    2704:	13 c0       	rjmp	.+38     	; 0x272c <__vector_13+0x10a>
    2706:	80 91 8e 00 	lds	r24, 0x008E	; 0x80008e <RxBuffer1>
    270a:	88 38       	cpi	r24, 0x88	; 136
    270c:	09 f4       	brne	.+2      	; 0x2710 <__vector_13+0xee>
    270e:	a9 cf       	rjmp	.-174    	; 0x2662 <__vector_13+0x40>
    2710:	10 92 4f 01 	sts	0x014F, r1	; 0x80014f <WorkRegStr+0x1>
    2714:	10 92 8e 00 	sts	0x008E, r1	; 0x80008e <RxBuffer1>
    2718:	09 c0       	rjmp	.+18     	; 0x272c <__vector_13+0x10a>
    271a:	c1 38       	cpi	r28, 0x81	; 129
    271c:	11 f0       	breq	.+4      	; 0x2722 <__vector_13+0x100>
    271e:	c8 38       	cpi	r28, 0x88	; 136
    2720:	19 f4       	brne	.+6      	; 0x2728 <__vector_13+0x106>
    2722:	c0 93 8e 00 	sts	0x008E, r28	; 0x80008e <RxBuffer1>
    2726:	02 c0       	rjmp	.+4      	; 0x272c <__vector_13+0x10a>
    2728:	10 92 4f 01 	sts	0x014F, r1	; 0x80014f <WorkRegStr+0x1>
    272c:	ff 91       	pop	r31
    272e:	ef 91       	pop	r30
    2730:	cf 91       	pop	r28
    2732:	bf 91       	pop	r27
    2734:	af 91       	pop	r26
    2736:	9f 91       	pop	r25
    2738:	8f 91       	pop	r24
    273a:	7f 91       	pop	r23
    273c:	6f 91       	pop	r22
    273e:	5f 91       	pop	r21
    2740:	4f 91       	pop	r20
    2742:	3f 91       	pop	r19
    2744:	2f 91       	pop	r18
    2746:	0f 90       	pop	r0
    2748:	0f be       	out	0x3f, r0	; 63
    274a:	0f 90       	pop	r0
    274c:	1f 90       	pop	r1
    274e:	18 95       	reti

00002750 <__vector_15>:
    2750:	1f 92       	push	r1
    2752:	0f 92       	push	r0
    2754:	0f b6       	in	r0, 0x3f	; 63
    2756:	0f 92       	push	r0
    2758:	11 24       	eor	r1, r1
    275a:	8f 93       	push	r24
    275c:	9f 93       	push	r25
    275e:	ef 93       	push	r30
    2760:	ff 93       	push	r31
    2762:	80 91 51 01 	lds	r24, 0x0151	; 0x800151 <WorkRegStr+0x3>
    2766:	8f 5f       	subi	r24, 0xFF	; 255
    2768:	80 93 51 01 	sts	0x0151, r24	; 0x800151 <WorkRegStr+0x3>
    276c:	90 91 52 01 	lds	r25, 0x0152	; 0x800152 <WorkRegStr+0x4>
    2770:	89 17       	cp	r24, r25
    2772:	c8 f0       	brcs	.+50     	; 0x27a6 <__vector_15+0x56>
    2774:	56 98       	cbi	0x0a, 6	; 10
    2776:	10 92 51 01 	sts	0x0151, r1	; 0x800151 <WorkRegStr+0x3>
    277a:	10 92 52 01 	sts	0x0152, r1	; 0x800152 <WorkRegStr+0x4>
    277e:	92 98       	cbi	0x12, 2	; 18
    2780:	80 91 4e 01 	lds	r24, 0x014E	; 0x80014e <WorkRegStr>
    2784:	81 ff       	sbrs	r24, 1
    2786:	16 c0       	rjmp	.+44     	; 0x27b4 <__vector_15+0x64>
    2788:	80 91 4e 01 	lds	r24, 0x014E	; 0x80014e <WorkRegStr>
    278c:	8d 7f       	andi	r24, 0xFD	; 253
    278e:	80 93 4e 01 	sts	0x014E, r24	; 0x80014e <WorkRegStr>
    2792:	10 92 4f 01 	sts	0x014F, r1	; 0x80014f <WorkRegStr+0x1>
    2796:	10 92 8e 00 	sts	0x008E, r1	; 0x80008e <RxBuffer1>
    279a:	10 92 8f 00 	sts	0x008F, r1	; 0x80008f <RxBuffer1+0x1>
    279e:	8a b1       	in	r24, 0x0a	; 10
    27a0:	80 69       	ori	r24, 0x90	; 144
    27a2:	8a b9       	out	0x0a, r24	; 10
    27a4:	07 c0       	rjmp	.+14     	; 0x27b4 <__vector_15+0x64>
    27a6:	e0 91 51 01 	lds	r30, 0x0151	; 0x800151 <WorkRegStr+0x3>
    27aa:	f0 e0       	ldi	r31, 0x00	; 0
    27ac:	e2 52       	subi	r30, 0x22	; 34
    27ae:	ff 4f       	sbci	r31, 0xFF	; 255
    27b0:	80 81       	ld	r24, Z
    27b2:	8c b9       	out	0x0c, r24	; 12
    27b4:	ff 91       	pop	r31
    27b6:	ef 91       	pop	r30
    27b8:	9f 91       	pop	r25
    27ba:	8f 91       	pop	r24
    27bc:	0f 90       	pop	r0
    27be:	0f be       	out	0x3f, r0	; 63
    27c0:	0f 90       	pop	r0
    27c2:	1f 90       	pop	r1
    27c4:	18 95       	reti

000027c6 <__udivmodsi4>:
    27c6:	a1 e2       	ldi	r26, 0x21	; 33
    27c8:	1a 2e       	mov	r1, r26
    27ca:	aa 1b       	sub	r26, r26
    27cc:	bb 1b       	sub	r27, r27
    27ce:	fd 01       	movw	r30, r26
    27d0:	0d c0       	rjmp	.+26     	; 0x27ec <__udivmodsi4_ep>

000027d2 <__udivmodsi4_loop>:
    27d2:	aa 1f       	adc	r26, r26
    27d4:	bb 1f       	adc	r27, r27
    27d6:	ee 1f       	adc	r30, r30
    27d8:	ff 1f       	adc	r31, r31
    27da:	a2 17       	cp	r26, r18
    27dc:	b3 07       	cpc	r27, r19
    27de:	e4 07       	cpc	r30, r20
    27e0:	f5 07       	cpc	r31, r21
    27e2:	20 f0       	brcs	.+8      	; 0x27ec <__udivmodsi4_ep>
    27e4:	a2 1b       	sub	r26, r18
    27e6:	b3 0b       	sbc	r27, r19
    27e8:	e4 0b       	sbc	r30, r20
    27ea:	f5 0b       	sbc	r31, r21

000027ec <__udivmodsi4_ep>:
    27ec:	66 1f       	adc	r22, r22
    27ee:	77 1f       	adc	r23, r23
    27f0:	88 1f       	adc	r24, r24
    27f2:	99 1f       	adc	r25, r25
    27f4:	1a 94       	dec	r1
    27f6:	69 f7       	brne	.-38     	; 0x27d2 <__udivmodsi4_loop>
    27f8:	60 95       	com	r22
    27fa:	70 95       	com	r23
    27fc:	80 95       	com	r24
    27fe:	90 95       	com	r25
    2800:	9b 01       	movw	r18, r22
    2802:	ac 01       	movw	r20, r24
    2804:	bd 01       	movw	r22, r26
    2806:	cf 01       	movw	r24, r30
    2808:	08 95       	ret

0000280a <__tablejump2__>:
    280a:	ee 0f       	add	r30, r30
    280c:	ff 1f       	adc	r31, r31
    280e:	05 90       	lpm	r0, Z+
    2810:	f4 91       	lpm	r31, Z
    2812:	e0 2d       	mov	r30, r0
    2814:	09 94       	ijmp

00002816 <__umulhisi3>:
    2816:	a2 9f       	mul	r26, r18
    2818:	b0 01       	movw	r22, r0
    281a:	b3 9f       	mul	r27, r19
    281c:	c0 01       	movw	r24, r0
    281e:	a3 9f       	mul	r26, r19
    2820:	70 0d       	add	r23, r0
    2822:	81 1d       	adc	r24, r1
    2824:	11 24       	eor	r1, r1
    2826:	91 1d       	adc	r25, r1
    2828:	b2 9f       	mul	r27, r18
    282a:	70 0d       	add	r23, r0
    282c:	81 1d       	adc	r24, r1
    282e:	11 24       	eor	r1, r1
    2830:	91 1d       	adc	r25, r1
    2832:	08 95       	ret

00002834 <__muluhisi3>:
    2834:	0e 94 0b 14 	call	0x2816	; 0x2816 <__umulhisi3>
    2838:	a5 9f       	mul	r26, r21
    283a:	90 0d       	add	r25, r0
    283c:	b4 9f       	mul	r27, r20
    283e:	90 0d       	add	r25, r0
    2840:	a4 9f       	mul	r26, r20
    2842:	80 0d       	add	r24, r0
    2844:	91 1d       	adc	r25, r1
    2846:	11 24       	eor	r1, r1
    2848:	08 95       	ret

0000284a <_exit>:
    284a:	f8 94       	cli

0000284c <__stop_program>:
    284c:	ff cf       	rjmp	.-2      	; 0x284c <__stop_program>
